(dp0
cdatetime
datetime
p1
(S'\x07\xde\n\x1f\x00\x00\x00\x00\x00\x00'
p2
tp3
Rp4
(dp5
S'url'
p6
S'http://rotoguru1.com/cgi-bin/hoopstat-daterange.pl?gameday=20141031&tmptmax=999&date=20141031&ha=&opptmax=999&saldate=20141031&opptmin=0&startdate=20141031&g=0&min=&gmptmax=999&gmptmin=0&tmptmin=0&sd=0'
p7
sS'content'
p8
S'\n<center><IMG SRC="http://rotoguru1.com/images/gfs2.gif" WIDTH=316 HEIGHT=66 alt="[RotoGuru logo]"><br>\n<IMG SRC="http://rotoguru1.com/images/gfssubtitle.gif" WIDTH=316 HEIGHT=29 alt="[RotoGuru subtitle]">\n</P>\n\n<Font size=+2>NBA Player Stat Summarizer</font></P><P>\n\n\n<script async src="//pagead2.googlesyndication.com/pagead/js/adsbygoogle.js"></script>\n<!-- DBD-728x90 -->\n<ins class="adsbygoogle"\n     style="display:inline-block;width:728px;height:90px"\n     data-ad-client="ca-pub-8583726409420479"\n     data-ad-slot="1101218059"></ins>\n<script>\n(adsbygoogle = window.adsbygoogle || []).push({});\n</script>\n</center><hr>\n<!---- end header ---->\nSummarizing stats from 31 OCT 2014 (20141031) through 31 OCT 2014 (20141031), DFS salary data as of 31 OCT 2014 (20141031)<br><table border=0><tr><td valign=top>Selection criteria: &nbsp; </td><td>&#8226; teams scheduled on 31 OCT 2014<br>&#8226; all games played (started and not started)<br>&#8226; both home and away games</td></tr></table><hr>\ngid;name;espn_id;espn_name;team;gp;gs;min;fg;fga;3p;3pa;ft;fta;orb;drb;rb;ast;stl;blk;to;pf;dq;+/-;dd;td;fanduel pts;draftkings pts;draftday pts;fanduel position;fanduel salary;draftkings position;draftkings salary;draftday position;draftday salary;team pts;oppt pts;total pts<br>\n3860;Aldridge, LaMarcus;2983;LaMarcus Aldridge;por;1;1;38;7;18;1;3;7;8;1;3;4;3;0;2;1;2;0;-10;0;0;34.3;35.5;33;4;9700;4; 9200;45;17650;94;103;197<br>\n4374;Allen, Lavoy;6424;Lavoy Allen;ind;1;0;26;3;4;0;0;2;2;2;8;10;2;1;1;1;3;0;8;0;0;26;27;26.75;4;3600;5; 3000;45; 5000;89;97;186<br>\n3619;Allen, Tony;2367;Tony Allen;mem;1;1;32;1;4;0;2;3;4;0;4;4;3;5;0;0;3;0;18;0;0;24.3;24.5;23.5;2;4800;2; 4000;23; 7950;97;89;186<br>\n4621;Antetokounmpo, Giannis;3032977;Giannis Antetokounmpo;mil;1;0;26;4;8;0;0;0;0;1;5;6;2;0;1;4;3;0;-9;0;0;16.2;18.5;17.5;2;5800;2; 5400;23; 9000;93;81;174<br>\n4248;Ayres, Jeff;4008;Jeff Ayres;sas;1;0;5;1;1;0;0;0;0;0;2;2;0;0;0;1;2;0;-11;0;0;3.4;4;4;4;3500;4; 3000;45; 5000;89;94;183<br>\n3474;Barnes, Matt;1765;Matt Barnes;lac;1;1;22;2;4;2;4;1;2;1;0;1;1;0;0;1;3;0;3;0;0;8.7;10.25;10.5;3;4900;3; 4800;3; 9400;118;111;229<br>\n4086;Batum, Nicolas;3416;Nicolas Batum;por;1;1;35;3;10;1;3;0;0;0;5;5;5;2;0;3;3;0;-16;0;0;21.5;23.75;22.5;3;7300;3; 7300;23;13450;94;103;197<br>\n4076;Bayless, Jerryd;3417;Jerryd Bayless;mil;1;0;14;3;7;0;1;0;0;0;0;0;4;1;0;1;1;0;2;0;0;13;13.5;12.5;1;3500;1; 3000;12; 5100;93;81;174<br>\n4556;Baynes, Aron;2968439;Aron Baynes;sas;1;0;12;2;3;0;0;2;2;1;2;3;2;0;0;1;3;0;3;0;0;11.6;12.25;12;5;3500;5; 3000;5; 5000;89;94;183<br>\n3974;Belinelli, Marco;3190;Marco Belinelli;sas;1;0;21;3;5;2;2;1;2;0;2;2;2;1;0;1;2;0;-8;0;0;15.4;17;17.25;2;4300;2; 4600;23; 9550;89;94;183<br>\n3518;Blake, Steve;1994;Steve Blake;por;1;0;22;2;7;2;5;0;0;0;3;3;5;1;0;2;4;0;8;0;0;17.1;19.25;19;1;4100;1; 3000;12; 6050;94;103;197<br>\n4266;Bledsoe, Eric;4238;Eric Bledsoe;pho;1;1;39;3;15;1;2;5;5;3;6;9;3;1;1;2;2;0;11;0;0;29.3;31.25;28.75;2;7500;2; 7300;12;14200;94;89;183<br>\n3461;Boozer, Carlos;1703;Carlos Boozer;lal;1;1;29;3;9;0;0;3;5;2;5;7;3;0;1;2;5;0;-4;0;0;21.9;23.25;21.25;4;6200;4; 6400;45;11800;111;118;229<br>\n3976;Brooks, Aaron;3192;Aaron Brooks;chi;1;0;20;4;8;2;5;1;2;0;1;1;2;1;0;4;3;0;-9;0;0;13.2;16.25;16;1;4800;1; 3500;1; 5000;108;114;222<br>\n1881;Bryant, Kobe;110;Kobe Bryant;lal;1;1;35;6;15;1;5;8;11;0;4;4;7;2;0;3;5;0;-9;0;0;37.3;39.5;37;2;8800;2; 8000;12;15100;111;118;229<br>\n2448;Carter, Vince;136;Vince Carter;mem;1;0;6;1;3;1;2;0;0;0;0;0;0;0;0;1;1;0;-13;0;0;2;3;3;3;5100;2; 4000;23; 9100;97;89;186<br>\n4209;Casspi, Omri;3554;Omri Casspi;sac;1;0;13;3;4;0;0;4;4;1;3;4;1;0;0;1;3;0;-4;0;0;15.3;16;15.75;3;3600;3; 3000;3; 5500;103;94;197<br>\n4668;Clarkson, Jordan;2528426;Jordan Clarkson;lal;1;0;6;1;3;1;2;0;0;0;0;0;0;1;0;0;2;0;-1;0;0;5;5.5;5.5;2;3700;1; 3000;1; 5000;111;118;229<br>\n4228;Collison, Darren;3973;Darren Collison;sac;1;1;38;6;14;0;3;5;6;2;6;8;8;3;0;3;4;0;14;0;0;41.6;43.5;41.25;1;5800;1; 6500;1;10000;103;94;197<br>\n3979;Conley, Mike;3195;Mike Conley;mem;1;1;33;6;19;3;8;2;3;0;2;2;4;1;0;4;2;0;11;0;0;23.4;27;25;1;7700;1; 7000;1;13350;97;89;186<br>\n4544;Copeland, Chris;6635;Chris Copeland;ind;1;0;31;5;14;2;7;4;4;2;4;6;2;0;0;2;1;0;9;0;0;24.2;26.5;25.25;3;4100;4; 3400;34; 8200;89;97;186<br>\n4274;Cousins, DeMarcus;4258;DeMarcus Cousins;sac;1;1;31;6;16;0;0;5;6;3;6;9;1;1;2;2;5;0;28;0;0;33.3;34.75;32;5;9700;5; 9900;45;17800;103;94;197<br>\n3116;Crawford, Jamal;165;Jamal Crawford;lac;1;0;27;5;11;3;8;9;10;0;2;2;5;0;0;0;2;0;11;0;0;31.9;33.5;33.25;2;5600;2; 5400;12; 9750;118;111;229<br>\n4584;Davies, Brandon;2490144;Brandon Davies;phi;1;0;5;0;2;0;1;0;0;0;1;1;0;1;0;1;0;0;-6;0;0;2.2;2.75;2.25;4;3600;4; 3200;4; 5000;81;93;174<br>\n4276;Davis, Ed;4259;Ed Davis;lal;1;0;20;5;6;0;0;0;0;3;3;6;0;0;0;1;5;0;-10;0;0;16.2;17;16.75;4;4200;4; 4500;45; 5850;111;118;229<br>\n4186;Daye, Austin;3976;Austin Daye;sas;1;1;19;2;7;2;6;0;0;0;2;2;2;2;0;1;4;0;6;0;0;14.4;16;15.75;3;3500;3; 3000;34; 6700;89;94;183<br>\n4610;Dellavedova, Matthew;2489716;Matthew Dellavedova;cle;1;0;30;0;3;0;2;0;0;0;1;1;4;0;1;0;3;0;15;0;0;9.2;9.25;8.5;1;3500;1; 3000;1; 5000;114;108;222<br>\n3527;Diaw, Boris;2167;Boris Diaw;sas;1;0;29;6;14;1;6;0;0;1;5;6;2;0;0;0;4;0;-11;0;0;23.2;24;22.5;4;4200;4; 4500;45; 9150;89;94;183<br>\n4091;Douglas-Roberts, Chris;3422;Chris Douglas-Roberts;lac;1;0;14;0;3;0;3;0;0;0;2;2;0;0;0;0;4;0;-10;0;0;2.4;2.5;1.75;3;3600;2; 3000;23; 7100;118;111;229<br>\n4092;Dragic, Goran;3423;Goran Dragic;pho;1;1;34;4;10;0;2;2;2;1;2;3;1;0;0;2;2;0;-9;0;0;13.1;14.25;12.75;1;8000;1; 7100;12;14000;94;89;183<br>\n3985;Dudley, Jared;3201;Jared Dudley;mil;1;1;16;2;4;0;2;0;0;0;2;2;2;1;0;0;1;0;6;0;0;11.4;11.5;11;3;3600;3; 3200;23; 5000;93;81;174<br>\n2223;Duncan, Tim;215;Tim Duncan;sas;1;1;30;6;11;0;0;4;6;1;8;9;2;0;0;1;0;0;3;0;0;28.8;29.75;28;4;7900;4; 7800;45;14500;89;94;183<br>\n3404;Dunleavy, Mike;1708;Mike Dunleavy;chi;1;1;40;5;10;4;7;0;0;0;9;9;8;1;2;3;5;0;-1;0;0;39.8;43.75;44.5;3;4700;3; 3500;23; 8900;108;114;222<br>\n4185;Ellington, Wayne;3981;Wayne Ellington;lal;1;0;20;3;6;1;4;0;0;1;2;3;1;0;0;0;1;0;-7;0;0;12.1;12.75;12.5;2;3500;2; 3000;2; 5000;111;118;229<br>\n3430;Evans, Reggie;1828;Reggie Evans;sac;1;0;24;2;7;0;0;0;0;2;4;6;1;0;0;2;4;0;-14;0;0;10.7;12;10.75;4;3500;4; 3000;45; 5000;103;94;197<br>\n3910;Farmar, Jordan;3002;Jordan Farmar;lac;1;0;11;0;1;0;1;0;0;0;1;1;1;0;0;1;0;0;0;0;0;1.7;2.25;2;1;4200;1; 3000;1; 7000;118;111;229<br>\n3958;Freeland, Joel;3004;Joel Freeland;por;1;0;6;0;1;0;0;0;0;1;0;1;1;0;0;0;3;0;-3;0;0;2.7;2.75;2.5;5;3500;5; 3000;45; 5000;94;103;197<br>\n3990;Gasol, Marc;3206;Marc Gasol;mem;1;1;33;9;16;0;0;2;3;0;6;6;2;2;2;2;5;0;2;0;0;36.2;37.5;35.5;5;8300;5; 8300;5;14250;97;89;186<br>\n3308;Gasol, Pau;996;Pau Gasol;chi;1;1;37;6;18;0;0;3;3;1;8;9;3;0;6;3;0;0;0;0;0;39.3;41.25;38.25;4;7600;4; 7100;45;13150;108;114;222<br>\n3857;Gay, Rudy;3005;Rudy Gay;sac;1;1;36;13;19;3;4;11;13;2;6;8;1;1;0;0;2;0;14;0;0;53.1;55;54.5;3;7700;3; 7100;34;13550;103;94;197<br>\n4167;Gibson, Taj;3986;Taj Gibson;chi;1;0;28;5;9;0;0;0;0;3;0;3;2;0;1;1;5;0;-18;0;0;17.6;18.25;17.25;4;5800;4; 5800;45;10950;108;114;222<br>\n3021;Ginobili, Manu;272;Manu Ginobili;sas;1;0;25;0;5;0;2;2;3;0;2;2;2;0;0;0;2;0;2;0;0;7.4;7.5;6;2;5600;2; 5600;23; 9600;89;94;183<br>\n4193;Green, Daniel;3988;Danny Green;sas;1;1;22;1;5;1;4;0;0;0;4;4;0;0;2;2;4;0;-16;0;0;9.8;11.5;11;2;4400;2; 4500;23; 9000;89;94;183<br>\n3760;Green, Gerald;2761;Gerald Green;pho;1;0;19;3;7;1;4;3;4;0;5;5;0;0;0;0;2;0;15;0;0;16;16.75;16;3;4500;2; 4000;23; 8500;94;89;183<br>\n4172;Griffin, Blake;3989;Blake Griffin;lac;1;1;39;13;23;2;2;11;12;1;6;7;4;0;0;5;4;0;5;0;0;48.4;52.25;50.5;4;9600;4;10000;45;17950;118;111;229<br>\n4733;Harris, Joe;2528794;Joe Harris;cle;1;0;0;0;0;0;0;0;0;0;0;0;0;0;0;0;0;0;0;0;0;0;0;0;2;3500;2; 3000;2; 5000;114;108;222<br>\n3996;Hawes, Spencer;3211;Spencer Hawes;lac;1;0;14;3;5;2;3;1;2;0;4;4;0;1;0;2;1;0;2;0;0;13.8;16;16.25;5;5300;5; 5000;45; 7750;118;111;229<br>\n4287;Henry, Xavier;4241;Xavier Henry;lal;1;0;5;0;0;0;0;2;4;0;0;0;0;0;0;0;0;0;1;0;0;2;2;1.5;2;3500;2; 3000;23; 6100;111;118;229<br>\n4525;Henson, John;6592;John Henson;mil;1;0;21;3;7;0;0;0;2;4;3;7;1;2;6;0;1;0;-1;0;0;31.9;32.25;30.75;4;5100;4; 4200;45; 7900;93;81;174<br>\n4101;Hibbert, Roy;3436;Roy Hibbert;ind;1;1;27;4;9;0;0;0;2;1;7;8;1;0;1;2;3;0;-12;0;0;19.1;20.5;18.75;5;6100;5; 7100;5;12450;89;97;186<br>\n4179;Hill, Jordan;3994;Jordan Hill;lal;1;1;34;10;15;0;0;3;4;2;3;5;0;0;1;0;5;0;-5;0;0;31;31.25;29.75;5;5100;4; 5500;45;11000;111;118;229<br>\n4566;Hill, Solomon;2488958;Solomon Hill;ind;1;1;17;1;2;1;2;2;2;0;3;3;0;0;0;1;4;0;-17;0;0;7.6;8.75;9;3;4800;3; 3500;3; 7200;89;97;186<br>\n3538;Hinrich, Kirk;1981;Kirk Hinrich;chi;1;1;34;7;11;3;5;3;5;1;1;2;1;2;0;1;3;0;2;0;0;26.9;29;29;1;4500;1; 3600;12; 8400;108;114;222<br>\n3898;Hollins, Ryan;3008;Ryan Hollins;sac;1;0;1;0;0;0;0;2;2;0;0;0;0;0;0;0;0;0;-3;0;0;2;2;2;5;3500;5; 3000;5; 5000;103;94;197<br>\n3765;Ilyasova, Ersan;2767;Ersan Ilyasova;mil;1;0;5;0;1;0;1;0;0;0;0;0;0;0;0;1;1;0;-2;0;0;-1;-0.5;-0.75;4;5700;4; 4600;34;10100;93;81;174<br>\n4379;Irving, Kyrie;6442;Kyrie Irving;cle;1;1;35;6;17;1;3;10;10;0;1;1;3;0;0;4;4;0;-2;0;0;24.7;27.25;25;1;7800;1; 7600;12;12600;114;108;222<br>\n3541;James, LeBron;1966;LeBron James;cle;1;1;42;14;30;1;3;7;9;1;7;8;4;4;1;3;1;0;-3;0;0;58.6;61;57;3;10400;3;10500;34;19900;114;108;222<br>\n4555;Johnson, Chris;2325975;Chris Johnson;phi;1;1;29;1;11;1;6;1;2;2;6;8;0;0;1;1;1;0;-1;0;0;14.6;16;13.75;3;3600;3; 3100;34; 7150;81;93;174<br>\n4292;Johnson, Wesley;4247;Wesley Johnson;lal;1;1;30;2;8;1;2;0;0;0;5;5;0;1;0;1;6;1;2;0;0;12;13.25;12.25;3;4500;3; 3800;23; 8350;111;118;229<br>\n4107;Jordan, DeAndre;3442;DeAndre Jordan;lac;1;1;38;5;5;0;0;1;2;4;9;13;0;1;2;3;5;0;4;1;0;29.6;33.25;33.5;5;6700;5; 7500;5;13850;118;111;229<br>\n4405;Joseph, Cory;6446;Cory Joseph;sas;1;0;14;3;6;0;2;1;2;1;4;5;1;0;1;0;3;0;-2;0;0;16.5;16.75;15.75;1;3500;1; 3000;1; 6100;89;94;183<br>\n3545;Kaman, Chris;1982;Chris Kaman;por;1;0;21;6;10;0;0;0;0;1;5;6;0;0;2;0;3;0;10;0;0;23.2;23.5;22.5;5;4900;5; 3400;45; 7450;94;103;197<br>\n4382;Knight, Brandon;6448;Brandon Knight;mil;1;1;29;2;8;1;4;8;10;0;7;7;8;2;0;3;2;0;6;0;0;34.4;36.75;35.25;1;7100;1; 7400;12;12450;93;81;174<br>\n4109;Koufos, Kosta;3444;Kosta Koufos;mem;1;0;22;1;4;0;0;1;2;3;2;5;1;0;0;0;2;0;0;0;0;10.5;10.75;9.75;5;3600;5; 3000;45; 6000;97;89;186<br>\n4003;Landry, Carl;3217;Carl Landry;sac;1;0;16;1;3;0;0;0;0;2;2;4;0;0;0;0;2;0;2;0;0;6.8;7;6.5;4;3900;4; 3000;34; 6500;103;94;197<br>\n4110;Lee, Courtney;3445;Courtney Lee;mem;1;1;16;4;5;1;1;3;3;1;3;4;2;0;0;0;1;0;0;0;0;19.8;20.5;20.75;2;4200;2; 4400;23; 7250;97;89;186<br>\n4591;Len, Alex;2596107;Alex Len;pho;1;0;32;4;6;0;0;2;3;4;7;11;1;0;1;0;2;0;12;1;0;26.7;28.75;28.5;5;3500;5; 3000;5; 5500;94;89;183<br>\n4404;Leonard, Kawhi;6450;Kawhi Leonard;sas;1;1;24;0;5;0;1;6;6;1;7;8;1;0;0;1;0;0;13;0;0;16.1;17;15.75;3;6100;3; 6100;23;12750;89;94;183<br>\n4411;Leuer, Jon;6452;Jon Leuer;mem;1;0;8;0;0;0;0;0;0;1;0;1;1;0;0;0;1;0;-5;0;0;2.7;2.75;2.75;4;3500;4; 3000;45; 5250;97;89;186<br>\n4523;Lillard, Damian;6606;Damian Lillard;por;1;1;35;4;13;4;8;8;9;2;5;7;2;0;1;1;4;0;-16;0;0;32.4;35.25;34.75;1;8000;1; 8100;1;14350;94;103;197<br>\n4297;Lin, Jeremy;4299;Jeremy Lin;lal;1;1;35;7;13;3;6;0;0;0;4;4;9;1;0;4;3;0;-6;0;0;33.3;37;37;1;5200;1; 4600;12;11050;111;118;229<br>\n4112;Lopez, Robin;3447;Robin Lopez;por;1;1;29;4;7;0;0;0;0;2;4;6;2;0;3;2;3;0;-15;0;0;22.2;23.5;22.75;5;5900;5; 6300;5;10650;94;103;197<br>\n4074;Love, Kevin;3449;Kevin Love;cle;1;1;41;5;17;1;6;5;6;2;14;16;1;4;0;0;2;0;7;1;0;44.7;47.5;45.25;4;10000;4; 9100;45;15800;114;108;222<br>\n3777;Mahinmi, Ian;2774;Ian Mahinmi;ind;1;0;21;2;5;0;0;0;0;2;3;5;0;1;0;1;2;0;4;0;0;11;11.75;11;5;3500;5; 3000;5; 5000;89;97;186<br>\n3039;Marion, Shawn;510;Shawn Marion;cle;1;0;15;2;5;0;0;0;0;1;2;3;1;0;0;0;1;0;5;0;0;9.1;9.25;8.5;3;4400;3; 4000;34; 6700;114;108;222<br>\n4500;Marshall, Kendall;6607;Kendall Marshall;mil;1;0;5;0;0;0;0;0;0;0;0;0;0;0;0;1;0;0;4;0;0;-1;-0.5;-0.5;1;4700;1; 3000;1; 5100;93;81;174<br>\n4164;Matthews, Wes;4032;Wesley Matthews;por;1;1;37;7;14;1;7;1;1;3;2;5;1;1;0;1;3;0;-10;0;0;24.5;25.75;24.5;2;5900;2; 6400;23;11500;94;103;197<br>\n4072;Mayo, O.J.;3450;O.J. Mayo;mil;1;0;28;8;13;5;7;4;6;1;2;3;5;1;0;1;3;0;10;0;0;37.1;40.25;41;2;4600;2; 4500;12; 7500;93;81;174<br>\n4113;Mbah a Moute, Luc;3451;Luc Richard Mbah a Moute;phi;1;0;25;2;5;0;2;2;4;1;2;3;2;1;0;0;1;0;-13;0;0;14.6;14.75;13.5;3;3500;3; 3000;34; 6000;81;93;174<br>\n4657;McCollum, C.J.;2490149;C.J. McCollum;por;1;0;10;0;1;0;0;0;0;0;0;0;0;0;0;0;1;0;4;0;0;0;0;-0.25;2;3600;1; 3000;12; 5000;94;103;197<br>\n4675;McDaniels, K.J.;2566741;K.J. McDaniels;phi;1;0;14;5;7;2;3;0;0;1;0;1;0;0;0;1;2;0;-10;0;0;12.2;13.75;14.25;4;3800;3; 4600;3; 6800;81;93;174<br>\n4669;McDermott, Doug;2528588;Doug McDermott;chi;1;0;17;0;3;0;3;0;0;0;0;0;0;0;1;0;1;0;-10;0;0;2;2;1.25;3;4800;3; 3400;3; 7900;108;114;222<br>\n4589;McLemore, Ben;2578213;Ben McLemore;sac;1;1;32;2;5;1;2;2;2;1;3;4;1;0;0;2;0;0;3;0;0;11.3;13;12.75;2;4300;2; 4500;2; 6550;103;94;197<br>\n4490;Middleton, Khris;6609;Khris Middleton;mil;1;1;28;5;16;2;5;0;0;0;4;4;1;0;0;2;2;0;11;0;0;16.3;18.5;16.75;3;5200;3; 4400;34; 8100;93;81;174<br>\n3783;Miles, C.J.;2778;C.J. Miles;ind;1;1;32;5;12;1;5;2;2;0;3;3;4;1;1;3;1;0;-17;0;0;23.6;25.75;24.5;3;4400;3; 4000;23; 9750;89;97;186<br>\n3141;Miller, Mike;558;Mike Miller;cle;1;0;12;0;1;0;1;0;0;0;1;1;0;0;0;0;1;0;3;0;0;1.2;1.25;1;3;3500;3; 3000;23; 5350;114;108;222<br>\n4682;Mirotic, Nikola;6459;Nikola Mirotic;chi;1;0;4;0;0;0;0;0;0;0;0;0;0;0;0;0;1;0;-6;0;0;0;0;0;4;4400;4; 3000;34; 5000;108;114;222<br>\n4407;Morris, Marcus;6462;Marcus Morris;pho;1;1;22;2;8;0;4;0;0;0;3;3;2;1;1;0;2;0;-12;0;0;14.6;14.75;13.25;4;5600;4; 4200;4; 8400;94;89;183<br>\n4453;Morris, Markieff;6461;Markieff Morris;pho;1;1;33;7;16;0;1;6;6;2;9;11;3;0;1;0;2;0;2;1;0;39.7;41.75;40;4;6000;4; 6200;45;11950;94;89;183<br>\n4013;Noah, Joakim;3224;Joakim Noah;chi;1;1;37;3;7;0;0;2;2;2;11;13;4;0;3;4;6;1;12;0;0;31.6;34.25;33.25;5;8400;5; 7000;45;13600;108;114;222<br>\n4652;Noel, Nerlens;2991280;Nerlens Noel;phi;1;1;35;7;11;0;0;0;0;1;9;10;2;1;3;0;3;0;-4;1;0;37;39;38.5;4;6000;4; 6500;45;11550;81;93;174<br>\n4728;Parker, Jabari;3056600;Jabari Parker;mil;1;1;31;5;11;1;3;0;2;2;8;10;0;1;0;3;1;0;15;1;0;22;26;25;3;6300;3; 5400;3;11450;93;81;174<br>\n3313;Parker, Tony;1015;Tony Parker;sas;1;1;38;8;16;2;2;1;2;0;2;2;6;0;0;4;1;0;-4;0;0;26.4;29.5;28.25;1;7300;1; 7000;1;12750;89;94;183<br>\n3786;Paul, Chris;2779;Chris Paul;lac;1;1;37;2;9;1;5;7;8;0;2;2;10;2;0;1;4;0;7;1;0;32.4;35;34;1;9600;1; 9500;1;18450;118;111;229<br>\n4542;Plumlee, Miles;6616;Miles Plumlee;pho;1;1;15;2;6;0;0;0;0;1;3;4;1;0;1;1;4;0;-6;0;0;11.3;12;11;5;4700;5; 5100;45;10500;94;89;183<br>\n4305;Pondexter, Quincy;4253;Quincy Pondexter;mem;1;0;23;0;3;0;2;0;0;0;1;1;3;0;0;0;3;0;-11;0;0;5.7;5.75;5;3;3500;2; 3000;23; 5000;97;89;186<br>\n3789;Price, Ronnie;2807;Ronnie Price;lal;1;0;13;3;4;0;1;0;0;0;4;4;4;0;0;0;1;0;-2;0;0;16.8;17;16.75;1;3600;1; 3500;12; 7600;111;118;229<br>\n3416;Prince, Tayshaun;1724;Tayshaun Prince;mem;1;0;18;2;5;1;2;1;2;0;1;1;1;0;0;0;0;0;15;0;0;8.7;9.25;8.75;3;3800;3; 3000;34; 5000;97;89;186<br>\n3314;Randolph, Zach;1017;Zach Randolph;mem;1;1;33;7;14;0;0;8;10;6;7;13;1;3;0;1;3;0;21;1;0;44.1;46.75;45;4;7800;4; 7600;45;13900;97;89;186<br>\n3861;Redick, J.J.;3024;J.J. Redick;lac;1;1;33;3;9;1;6;8;8;0;3;3;3;2;0;1;1;0;11;0;0;26.1;27.25;26.25;2;4900;2; 4600;2; 8950;118;111;229<br>\n4073;Rose, Derrick;3456;Derrick Rose;chi;1;1;25;8;16;2;6;2;3;3;1;4;4;0;0;2;1;0;8;0;0;28.8;31;29.75;1;8200;1; 7100;1;15000;108;114;222<br>\n4683;Rudez, Damjan;2309097;Damjan Rudez;ind;1;0;20;3;4;3;4;2;2;0;0;0;0;0;0;0;0;0;14;0;0;11;12.5;13.75;3;3500;4; 3000;4; 5000;89;97;186<br>\n4535;Sacre, Robert;6620;Robert Sacre;lal;1;0;14;2;3;0;0;4;4;1;1;2;0;0;0;3;2;0;6;0;0;7.4;9;8.75;5;3500;5; 3000;5; 5000;111;118;229<br>\n4676;Sampson, JaKarr;2608891;JaKarr Sampson;phi;1;0;5;0;1;0;1;0;0;0;0;0;0;0;1;1;0;0;-6;0;0;1;1.5;1.25;4;3500;4; 3000;4; 5000;81;93;174<br>\n4313;Sanders, Larry;4265;Larry Sanders;mil;1;1;27;4;12;0;0;0;1;7;8;15;1;2;4;2;4;0;13;0;0;37.5;39.25;37;5;6800;5; 5700;45;10450;93;81;174<br>\n3503;Scola, Luis;1781;Luis Scola;ind;1;1;19;1;3;0;0;0;0;3;2;5;1;0;0;5;1;0;-23;0;0;4.5;7.25;6.75;4;4700;4; 4800;45; 8550;89;97;186<br>\n4020;Sessions, Ramon;3231;Ramon Sessions;sac;1;0;10;0;4;0;0;2;2;0;0;0;1;0;0;0;0;0;-5;0;0;3.5;3.5;2.5;1;4600;1; 3000;12; 7400;103;94;197<br>\n4524;Shved, Alexey;3882;Alexey Shved;phi;1;0;16;1;6;0;2;1;2;0;0;0;4;1;0;2;0;0;-11;0;0;9;10;8.5;1;3800;1; 4600;12; 6850;81;93;174<br>\n4547;Sims, Henry;6647;Henry Sims;phi;1;1;26;3;8;0;0;1;2;3;5;8;1;0;0;1;2;0;7;0;0;17.1;18;16.5;5;5400;5; 5100;5; 8850;81;93;174<br>\n4435;Sloan, Donald;4303;Donald Sloan;ind;1;1;35;5;11;1;2;1;2;1;4;5;7;1;0;2;0;0;-15;0;0;28.5;30.25;29;1;4700;1; 5800;12; 9800;89;97;186<br>\n4571;Snell, Tony;2528353;Tony Snell;chi;1;0;23;3;8;2;5;2;2;1;0;1;1;0;1;1;3;0;-8;0;0;13.7;15.25;15;2;3500;2; 3000;23; 5000;108;114;222<br>\n4703;Stauskas, Nik;2991042;Nik Stauskas;sac;1;0;16;0;4;0;1;0;0;1;1;2;0;1;0;0;1;0;6;0;0;4.4;4.5;3.5;2;4300;2; 3400;2; 5000;103;94;197<br>\n4026;Stuckey, Rodney;3235;Rodney Stuckey;ind;1;0;13;5;10;0;1;0;0;0;1;1;2;1;0;1;0;0;9;0;0;15.2;15.75;14.5;2;5700;2; 5500;12;10400;89;97;186<br>\n4420;Thomas, Isaiah;6472;Isaiah Thomas;pho;1;0;29;10;17;0;3;3;4;1;1;2;4;0;0;2;4;0;10;0;0;29.4;30.5;28.5;1;6500;1; 5800;1;10600;94;89;183<br>\n4452;Thomas, Malcolm;6511;Malcolm Thomas;phi;1;0;15;3;5;0;0;0;0;2;3;5;3;1;0;0;1;0;-6;0;0;18.5;18.75;18.25;4;3500;3; 3000;;;81;93;174<br>\n4534;Thompson, Hollis;6634;Hollis Thompson;phi;1;1;35;6;19;2;6;1;1;0;3;3;2;1;0;1;4;0;-4;0;0;22.6;24.25;22;3;4500;3; 3900;34; 6700;81;93;174<br>\n4124;Thompson, Jason;3462;Jason Thompson;sac;1;1;23;1;5;0;0;0;0;0;4;4;0;0;0;0;3;0;4;0;0;6.8;7;6;4;4200;4; 3900;45; 6600;103;94;197<br>\n4380;Thompson, Tristan;6474;Tristan Thompson;cle;1;0;36;7;13;0;0;2;2;12;1;13;2;0;2;0;2;0;3;1;0;38.6;40.75;39.75;4;4300;4; 5400;45; 8000;114;108;222<br>\n4049;Tolliver, Anthony;3276;Anthony Tolliver;pho;1;0;17;0;2;0;2;1;2;0;2;2;0;0;0;0;1;0;2;0;0;3.4;3.5;2.75;4;3500;4; 3000;34; 5000;94;89;183<br>\n3164;Turkoglu, Hedo;862;Hedo Turkoglu;lac;1;0;4;1;1;1;1;0;0;0;1;1;1;0;0;0;2;0;2;0;0;5.7;6.25;6.75;3;3500;3; 3000;34; 5000;118;111;229<br>\n3678;Udrih, Beno;2448;Beno Udrih;mem;1;0;17;4;6;1;2;0;0;0;3;3;2;0;0;1;0;0;2;0;0;14.6;15.75;15.75;1;3500;1; 3000;1; 5000;97;89;186<br>\n3679;Varejao, Anderson;2419;Anderson Varejao;cle;1;1;28;4;8;0;0;2;2;3;3;6;2;0;0;1;2;0;2;0;0;19.2;20;19;5;4800;5; 4300;45; 9400;114;108;222<br>\n4515;Waiters, Dion;6628;Dion Waiters;cle;1;1;26;3;10;0;0;3;4;1;2;3;1;0;0;1;2;0;0;0;0;13.1;13.75;11.75;2;4900;2; 4900;2; 7550;114;108;222<br>\n4612;Wolters, Nate;2491079;Nate Wolters;mil;1;0;10;0;1;0;1;0;0;0;1;1;1;0;0;0;0;0;5;0;0;2.7;2.75;2.5;1;3900;1; 3000;1; 5000;93;81;174<br>\n3683;Wright, Dorell;2423;Dorell Wright;por;1;0;7;1;2;0;0;1;1;0;1;1;1;1;0;0;0;0;3;0;0;7.7;7.75;7.5;3;4100;3; 3000;23; 5000;94;103;197<br>\n4469;Wroten, Tony;6630;Tony Wroten;phi;1;1;35;4;11;0;2;6;11;2;1;3;6;3;0;8;4;0;-6;0;0;24.6;28.75;25.75;1;6800;1; 6400;1;12000;81;93;174<br>\n<hr>\n'
p9
ssg1
(S'\x07\xde\n\x1e\x00\x00\x00\x00\x00\x00'
p10
tp11
Rp12
(dp13
g6
S'http://rotoguru1.com/cgi-bin/hoopstat-daterange.pl?gameday=20141030&tmptmax=999&date=20141030&ha=&opptmax=999&saldate=20141030&opptmin=0&startdate=20141030&g=0&min=&gmptmax=999&gmptmin=0&tmptmin=0&sd=0'
p14
sg8
S'\n<center><IMG SRC="http://rotoguru1.com/images/gfs2.gif" WIDTH=316 HEIGHT=66 alt="[RotoGuru logo]"><br>\n<IMG SRC="http://rotoguru1.com/images/gfssubtitle.gif" WIDTH=316 HEIGHT=29 alt="[RotoGuru subtitle]">\n</P>\n\n<Font size=+2>NBA Player Stat Summarizer</font></P><P>\n\n\n<script async src="//pagead2.googlesyndication.com/pagead/js/adsbygoogle.js"></script>\n<!-- DBD-728x90 -->\n<ins class="adsbygoogle"\n     style="display:inline-block;width:728px;height:90px"\n     data-ad-client="ca-pub-8583726409420479"\n     data-ad-slot="1101218059"></ins>\n<script>\n(adsbygoogle = window.adsbygoogle || []).push({});\n</script>\n</center><hr>\n<!---- end header ---->\nSummarizing stats from 30 OCT 2014 (20141030) through 30 OCT 2014 (20141030), DFS salary data as of 30 OCT 2014 (20141030)<br><table border=0><tr><td valign=top>Selection criteria: &nbsp; </td><td>&#8226; teams scheduled on 30 OCT 2014<br>&#8226; all games played (started and not started)<br>&#8226; both home and away games</td></tr></table><hr>\ngid;name;espn_id;espn_name;team;gp;gs;min;fg;fga;3p;3pa;ft;fta;orb;drb;rb;ast;stl;blk;to;pf;dq;+/-;dd;td;fanduel pts;draftkings pts;draftday pts;fanduel position;fanduel salary;draftkings position;draftkings salary;draftday position;draftday salary;team pts;oppt pts;total pts<br>\n4496;Acy, Quincy;6576;Quincy Acy;nyk;1;1;22;4;7;0;0;0;0;6;4;10;2;0;1;2;6;1;2;0;0;23;24.5;23.75;3;3500;4; 3000;4; 5000;95;90;185<br>\n4574;Adams, Steven;2991235;Steven Adams;okc;1;1;29;2;8;0;1;2;2;4;6;10;1;0;0;3;5;0;3;0;0;16.5;18.5;17;5;3800;5; 3500;5; 6200;90;93;183<br>\n4260;Aldrich, Cole;4267;Cole Aldrich;nyk;1;0;14;1;2;0;0;0;0;2;4;6;1;1;0;1;4;0;10;0;0;11.7;12.5;12.25;5;3500;5; 3000;5; 5000;95;90;185<br>\n4261;Aminu, Al-Farouq;4248;Al-Farouq Aminu;dal;1;0;20;6;7;1;1;3;4;2;8;10;1;1;0;1;2;0;-1;1;0;30.5;33.5;34;3;4100;3; 3000;3; 6150;120;102;222<br>\n3510;Anthony, Carmelo;1975;Carmelo Anthony;nyk;1;1;34;9;17;2;4;5;7;0;2;2;6;0;0;2;5;0;9;0;0;34.4;36.5;35;4;10200;3; 9300;34;19550;95;90;185<br>\n3972;Anthony, Joel;3247;Joel Anthony;det;1;0;17;1;2;0;0;0;0;0;4;4;0;1;1;0;2;0;-3;0;0;10.8;11;10.75;5;3500;4; 3000;45; 5000;91;97;188<br>\n4078;Augustin, D.J.;3415;D.J. Augustin;det;1;0;33;6;18;1;5;7;7;1;2;3;6;0;0;2;2;0;2;0;0;30.6;32.25;29.75;1;3900;1; 3500;1; 5550;91;97;188<br>\n3882;Barea, Jose;3055;J.J. Barea;dal;1;0;19;2;5;0;0;0;0;0;4;4;3;0;0;1;0;0;13;0;0;12.3;13;12.25;;;;;;;120;102;222<br>\n3474;Barnes, Matt;1765;Matt Barnes;lac;1;1;27;3;6;1;3;0;0;0;3;3;1;1;2;0;2;0;4;0;0;18.1;18.75;18.5;3;4900;3; 4800;3; 9900;93;90;183<br>\n4619;Bennett, Anthony;2991473;Anthony Bennett;min;1;0;14;2;4;0;0;0;0;0;3;3;0;0;1;0;0;0;-9;0;0;9.6;9.75;9.25;4;3600;3; 3900;34; 6100;97;91;188<br>\n4267;Booker, Trevor;4270;Trevor Booker;uta;1;0;19;3;6;3;4;0;0;1;4;5;0;0;0;1;2;0;-11;0;0;14;16.25;17;4;3900;4; 3000;4; 5200;102;120;222<br>\n3975;Brewer, Corey;3191;Corey Brewer;min;1;1;29;3;6;1;1;1;2;1;3;4;1;2;0;1;0;0;9;0;0;17.3;18.5;18;3;4800;3; 4100;23; 7550;97;91;188<br>\n4615;Burke, Trey;2579260;Trey Burke;uta;1;1;34;6;15;2;6;2;2;3;0;3;7;2;0;4;0;0;-5;0;0;30.1;33.25;32;1;6100;1; 6500;1;12100;102;120;222<br>\n4441;Burks, Alec;6429;Alec Burks;uta;1;1;26;5;11;3;5;2;2;0;1;1;2;2;0;2;4;0;1;0;0;21.2;23.75;23.75;2;5100;2; 5800;12;10500;102;120;222<br>\n3401;Butler, Caron;1705;Caron Butler;det;1;0;31;10;14;4;7;0;0;3;5;8;0;0;0;1;4;0;9;0;0;32.6;35.5;36.5;3;3600;3; 3700;3; 6650;91;97;188<br>\n4616;Caldwell-Pope, Kentavious;2581018;Kentavious Caldwell-Pope;det;1;1;41;5;13;1;2;0;2;4;2;6;2;2;0;1;2;0;-9;0;0;24.2;25.5;23.5;2;3800;2; 3600;2; 7500;91;97;188<br>\n3307;Chandler, Tyson;984;Tyson Chandler;dal;1;1;25;5;5;0;0;3;4;2;4;6;2;1;1;0;2;0;0;0;0;27.2;27.5;27.25;5;5700;5; 5600;5;11150;120;102;222<br>\n4611;Clark, Ian;2489785;Ian Clark;uta;1;0;4;1;1;1;1;0;0;0;0;0;0;0;0;0;0;0;-4;0;0;3;3.5;4;2;3500;2; 3000;12; 5000;102;120;222<br>\n3523;Collison, Nick;1978;Nick Collison;okc;1;0;15;2;5;0;1;2;2;0;6;6;0;1;1;3;2;0;-3;0;0;14.2;16;15.25;4;3500;5; 3000;45; 5000;90;93;183<br>\n3116;Crawford, Jamal;165;Jamal Crawford;lac;1;0;27;5;15;2;8;4;4;0;2;2;2;3;0;3;3;0;8;0;0;24.4;27;25.5;2;5600;2; 5500;12;10250;93;90;183<br>\n4472;Crowder, Jae;6581;Jae Crowder;dal;1;0;9;0;4;0;2;0;0;0;0;0;0;0;1;0;0;0;4;0;0;2;2;1;3;3500;4; 3000;34; 5000;120;102;222<br>\n3338;Dalembert, Samuel;991;Samuel Dalembert;nyk;1;1;6;0;1;0;0;0;0;0;2;2;0;0;0;0;0;0;-2;0;0;2.4;2.5;2.25;5;4800;5; 4000;5; 7500;95;90;185<br>\n4572;Dedmon, Dewayne;2580913;Dewayne Dedmon;orl;1;0;9;0;0;0;0;0;0;0;2;2;0;0;1;0;1;0;1;0;0;4.4;4.5;4.5;5;3500;5; 3000;5; 5000;98;105;203<br>\n4610;Dellavedova, Matthew;2489716;Matthew Dellavedova;cle;1;0;18;2;3;2;2;0;0;0;0;0;3;0;0;0;3;0;6;0;0;10.5;11.5;12.25;1;3500;1; 3000;1; 5000;90;95;185<br>\n4632;Dieng, Gorgui;2534781;Gorgui Dieng;min;1;0;17;1;2;0;0;2;2;1;4;5;0;0;2;0;0;0;-5;0;0;14;14.25;14;5;5200;5; 5400;5; 9650;97;91;188<br>\n4091;Douglas-Roberts, Chris;3422;Chris Douglas-Roberts;lac;1;0;12;0;4;0;2;2;2;1;2;3;1;0;0;0;4;0;3;0;0;7.1;7.25;6.25;3;3600;2; 3000;23; 7450;93;90;183<br>\n4489;Drummond, Andre;6585;Andre Drummond;det;1;1;31;5;14;0;0;1;4;2;10;12;1;0;2;2;5;0;-3;1;0;28.9;32;29.5;5;8700;5; 8600;45;15900;91;97;188<br>\n3745;Ellis, Monta;2751;Monta Ellis;dal;1;1;29;6;13;0;1;2;3;0;3;3;6;0;0;1;1;0;5;0;0;25.6;26.25;24.25;2;8200;2; 7700;12;13800;120;102;222<br>\n4707;Exum, Dante;3102528;Dante Exum;uta;1;0;19;1;4;0;3;0;0;0;0;0;0;0;0;2;1;0;-15;0;0;0;1;0.25;1;3700;1; 5500;1; 6200;102;120;222<br>\n3910;Farmar, Jordan;3002;Jordan Farmar;lac;1;0;10;2;4;2;4;0;0;0;0;0;1;1;0;0;2;0;3;0;0;9.5;10.5;11;1;4200;1; 3000;1; 7350;93;90;183<br>\n4280;Favors, Derrick;4257;Derrick Favors;uta;1;1;35;7;12;0;0;3;4;3;8;11;2;1;0;1;3;0;-3;1;0;34.2;36.75;35.75;4;6000;5; 7300;45;13100;102;120;222<br>\n4468;Fournier, Evan;6588;Evan Fournier;orl;1;1;34;8;10;3;4;2;2;1;3;4;0;1;0;3;5;0;-2;0;0;24.8;28;29;2;4400;2; 4000;2; 6400;98;105;203<br>\n3749;Frye, Channing;2754;Channing Frye;orl;1;1;24;1;3;0;2;0;0;0;2;2;0;0;0;2;2;0;-11;0;0;2.4;3.5;3;4;4900;4; 5300;45; 9800;98;105;203<br>\n4620;Gobert, Rudy;3032976;Rudy Gobert;uta;1;0;13;2;3;0;0;1;1;5;3;8;1;0;0;3;2;0;-13;0;0;13.1;15;14.75;5;3500;5; 3500;5; 5850;102;120;222<br>\n3406;Gooden, Drew;1711;Drew Gooden;was;1;0;20;2;7;0;1;0;0;1;4;5;0;0;0;2;1;0;2;0;0;8;9.25;8;4;4300;4; 3500;45; 5750;105;98;203<br>\n4705;Gordon, Aaron;3064290;Aaron Gordon;orl;1;0;18;2;4;0;1;0;1;0;4;4;1;0;0;1;1;0;-15;0;0;9.3;10;9.25;4;3500;4; 3400;4; 7750;98;105;203<br>\n3636;Gordon, Ben;2381;Ben Gordon;orl;1;0;26;7;12;2;5;6;7;0;0;0;4;0;0;1;2;0;9;0;0;27;28.5;28;2;3500;2; 3000;2; 6500;98;105;203<br>\n3756;Gortat, Marcin;2758;Marcin Gortat;was;1;1;37;10;13;0;0;0;2;2;10;12;1;0;0;2;1;0;15;1;0;33.9;37;36.25;5;7400;5; 6700;5;12050;105;98;203<br>\n3533;Green, Willie;2004;Willie Green;orl;1;0;4;0;0;0;0;2;2;0;0;0;0;0;0;0;1;0;2;0;0;2;2;2;2;3500;2; 3000;2; 5000;98;105;203<br>\n4172;Griffin, Blake;3989;Blake Griffin;lac;1;1;38;8;18;0;0;7;10;5;2;7;3;1;0;3;6;1;-5;0;0;34.9;36.75;33.5;4;9600;4;10000;45;18150;93;90;183<br>\n4628;Hardaway Jr., Tim;2528210;Tim Hardaway Jr.;nyk;1;0;5;0;0;0;0;0;0;0;0;0;1;0;0;0;0;0;0;0;0;1.5;1.5;1.5;2;4600;2; 4200;2; 6800;95;90;185<br>\n3637;Harris, Devin;2382;Devin Harris;dal;1;0;24;3;9;3;7;3;4;0;1;1;3;1;0;1;0;0;19;0;0;18.7;20.75;20.5;1;4500;1; 4600;12; 7900;120;102;222<br>\n4412;Harris, Tobias;6440;Tobias Harris;orl;1;1;35;4;12;1;2;5;7;0;4;4;0;1;0;3;3;0;-15;0;0;17.8;20;18;3;6500;3; 5800;34;11150;98;105;203<br>\n3996;Hawes, Spencer;3211;Spencer Hawes;lac;1;0;19;2;6;0;3;0;0;1;3;4;1;0;1;1;2;0;5;0;0;11.3;12;11;5;5300;5; 4800;45; 8150;93;90;183<br>\n4285;Hayward, Gordon;4249;Gordon Hayward;uta;1;1;36;4;9;2;7;6;6;1;3;4;6;1;0;2;3;0;-15;0;0;29.8;32;31.75;3;6700;2; 7300;23;13950;102;120;222<br>\n3408;Hilario, Nene;1713;Nene Hilario;was;1;1;34;5;10;0;0;2;4;0;4;4;5;3;0;0;3;0;2;0;0;30.3;30.5;28.75;4;6200;;;45;10600;105;98;203<br>\n4744;Hood, Rodney;2581177;Rodney Hood;uta;1;0;17;0;7;0;3;0;0;0;2;2;2;0;0;0;4;0;-8;0;0;5.4;5.5;3.75;3;4200;3; 3000;3; 5000;102;120;222<br>\n3640;Humphries, Kris;2433;Kris Humphries;was;1;0;3;0;1;0;0;0;0;0;0;0;0;0;0;0;0;0;-1;0;0;0;0;-0.25;4;4400;5; 3600;45; 6700;105;98;203<br>\n4104;Ibaka, Serge;3439;Serge Ibaka;okc;1;1;33;7;13;2;5;1;1;2;7;9;2;0;0;0;4;0;2;0;0;30.8;32.25;31.75;4;7900;4; 7700;45;13350;90;93;183<br>\n4701;Ingles, Joe;2968436;Joe Ingles;uta;1;0;11;1;2;0;1;0;0;0;1;1;2;0;0;1;1;0;-10;0;0;5.2;5.75;5.5;;;;;;;102;120;222<br>\n4379;Irving, Kyrie;6442;Kyrie Irving;cle;1;1;43;8;15;1;6;5;7;2;3;5;7;2;1;4;2;0;-6;0;0;40.5;43.25;41.5;1;7800;1; 7500;12;13300;90;95;185<br>\n3541;James, LeBron;1966;LeBron James;cle;1;1;43;5;15;1;5;6;7;0;5;5;4;0;0;8;3;0;-13;0;0;21;25.75;23.5;3;10400;3;10500;34;20950;90;95;185<br>\n3311;Jefferson, Richard;1006;Richard Jefferson;dal;1;0;16;0;1;0;1;0;0;0;2;2;1;1;0;1;2;0;19;0;0;4.9;5.5;5.25;3;3500;3; 3000;3; 5000;120;102;222<br>\n4182;Jennings, Brandon;3997;Brandon Jennings;det;1;1;16;2;4;0;0;0;0;1;1;2;6;0;0;2;3;0;-8;0;0;13.4;14.5;14;1;7400;1; 7100;1;13150;91;97;188<br>\n4187;Jerebko, Jonas;3998;Jonas Jerebko;det;1;0;18;2;4;0;1;0;0;0;1;1;1;0;0;0;1;0;10;0;0;6.7;6.75;6.25;4;3500;4; 3000;34; 5000;91;97;188<br>\n4533;Jones III, Perry;6598;Perry Jones;okc;1;1;42;10;17;3;6;9;11;1;6;7;3;0;1;5;4;0;3;0;0;41.9;46.25;45.5;3;4200;3; 3000;34; 7150;90;93;183<br>\n4107;Jordan, DeAndre;3442;DeAndre Jordan;lac;1;1;35;4;6;0;0;0;0;5;5;10;1;1;0;2;2;0;4;0;0;21.5;23;22.5;5;6700;5; 7400;5;13350;93;90;183<br>\n4442;Kanter, Enes;6447;Enes Kanter;uta;1;1;20;4;10;1;2;2;3;2;2;4;0;0;0;0;0;0;-1;0;0;15.8;16.5;15.25;5;4700;5; 6100;5;10150;102;120;222<br>\n4655;Larkin, Shane;2596158;Shane Larkin;nyk;1;1;28;4;6;1;1;0;0;1;1;2;5;5;0;3;0;0;-5;0;0;25.9;28;28;1;3500;1; 3000;1; 7750;95;90;185<br>\n4706;LaVine, Zach;3064440;Zach LaVine;min;1;0;5;0;0;0;0;0;0;0;0;0;0;0;0;0;0;0;-3;0;0;0;0;0;2;3700;1; 3000;1; 5000;97;91;188<br>\n4074;Love, Kevin;3449;Kevin Love;cle;1;1;38;6;14;3;6;4;4;3;11;14;4;0;0;2;1;0;-4;1;0;39.8;44.5;44.5;4;10000;4; 9000;45;17450;90;95;185<br>\n4689;Marble, Devyn;2527968;Devyn Marble;orl;1;0;0;0;0;0;0;0;0;0;0;0;0;0;0;0;0;0;-1;0;0;0;0;0;;;;;;;98;105;203<br>\n3039;Marion, Shawn;510;Shawn Marion;cle;1;0;10;0;2;0;0;0;0;0;2;2;1;1;0;0;1;0;-1;0;0;5.9;6;5.5;3;4400;3; 3900;34; 7050;90;95;185<br>\n3652;Martin, Kevin;2394;Kevin Martin;min;1;0;20;3;8;1;2;5;6;0;2;2;2;1;0;2;2;0;-8;0;0;17.4;19;18;2;5700;2; 5500;23;11450;97;91;188<br>\n3041;Miller, Andre;557;Andre Miller;was;1;0;11;0;1;0;0;2;2;0;3;3;1;0;0;1;0;0;-7;0;0;6.1;6.75;6.5;1;3900;1; 3900;12; 5000;105;98;203<br>\n3141;Miller, Mike;558;Mike Miller;cle;1;0;3;0;0;0;0;0;0;0;0;0;0;0;0;0;0;0;4;0;0;0;0;0;3;3500;3; 3000;23; 5650;90;95;185<br>\n4594;Muhammad, Shabazz;2993875;Shabazz Muhammad;min;1;0;12;0;0;0;0;1;2;0;1;1;0;0;0;1;1;0;0;0;0;1.2;1.75;1.5;3;3500;3; 3000;3; 5000;97;91;188<br>\n3656;Nelson, Jameer;2439;Jameer Nelson;dal;1;1;21;2;4;1;2;0;0;0;1;1;5;2;0;1;3;0;-2;0;0;16.7;17.75;17.75;1;5800;1; 4600;1; 8900;120;102;222<br>\n4531;Nicholson, Andrew;6614;Andrew Nicholson;orl;1;0;5;0;1;0;0;0;0;0;1;1;1;0;0;0;1;0;5;0;0;2.7;2.75;2.5;4;4200;4; 3000;4; 5000;98;105;203<br>\n3895;Novak, Steve;3018;Steve Novak;uta;1;0;8;2;3;2;3;0;0;0;1;1;0;0;0;0;1;0;-6;0;0;7.2;8.25;9;3;3500;3; 3000;34; 5000;102;120;222<br>\n2374;Nowitzki, Dirk;609;Dirk Nowitzki;dal;1;1;24;9;13;2;4;1;2;0;3;3;1;1;1;1;2;0;12;0;0;29.1;30.75;30.5;4;7800;4; 7200;45;14050;120;102;222<br>\n4461;Parsons, Chandler;6466;Chandler Parsons;dal;1;1;29;8;16;1;3;4;4;4;3;7;2;0;0;2;1;0;4;0;0;30.4;32.25;30.75;3;6500;3; 6700;34;13200;120;102;222<br>\n3786;Paul, Chris;2779;Chris Paul;lac;1;1;38;9;18;1;3;3;7;2;2;4;7;3;1;0;3;0;0;0;0;45.3;46;43.25;1;9600;1; 9300;1;18950;93;90;183<br>\n4699;Payton, Elfrid;2583639;Elfrid Payton;orl;1;1;23;0;2;0;0;2;4;1;2;3;7;0;0;6;4;0;-21;0;0;10.1;13.25;12.25;1;5500;1; 4900;1; 9600;98;105;203<br>\n4116;Pekovic, Nikola;3453;Nikola Pekovic;min;1;1;31;7;13;0;0;3;3;5;5;10;0;0;0;3;4;0;11;1;0;26;29.5;28.5;5;7000;5; 6000;5;11800;97;91;188<br>\n3556;Perkins, Kendrick;2018;Kendrick Perkins;okc;1;0;19;0;2;0;0;3;4;0;6;6;1;0;0;1;1;0;-6;0;0;10.7;11.5;10.75;5;3700;5; 3000;5; 5000;90;93;183<br>\n2428;Pierce, Paul;662;Paul Pierce;was;1;1;30;6;13;2;2;2;2;1;3;4;1;2;0;1;4;0;2;0;0;25.3;27;26.25;3;5500;3; 6200;34;10900;105;98;203<br>\n4653;Porter, Otto;2594922;Otto Porter Jr.;was;1;0;18;1;3;0;0;2;2;1;0;1;1;3;0;1;5;0;5;0;0;11.7;12.25;11.75;3;4000;3; 3000;3; 8200;105;98;203<br>\n4546;Prigioni, Pablo;4182;Pablo Prigioni;nyk;1;0;20;2;4;2;3;0;0;0;1;1;2;1;0;1;0;0;10;0;0;11.2;12.75;13.25;1;3900;1; 3000;12; 5350;95;90;185<br>\n3861;Redick, J.J.;3024;J.J. Redick;lac;1;1;30;1;10;1;7;2;2;0;0;0;0;0;0;2;2;0;-7;0;0;3;4.5;2.75;2;4900;2; 4600;2; 9450;93;90;183<br>\n4608;Rice Jr., Glen;2488660;Glen Rice Jr.;was;1;0;14;1;2;1;2;2;3;1;0;1;0;0;0;2;4;0;-13;0;0;4.2;5.75;5.75;2;4800;2; 3000;23; 7350;105;98;203<br>\n3560;Ridnour, Luke;1985;Luke Ridnour;orl;1;0;25;4;7;0;1;0;0;0;1;1;4;1;0;0;0;0;16;0;0;17.2;17.25;16.5;1;4400;1; 3000;12; 5000;98;105;203<br>\n4559;Roberson, Andre;2530596;Andre Roberson;okc;1;1;37;3;5;0;2;3;4;0;6;6;3;2;0;4;4;0;2;0;0;20.7;23;22.25;2;4600;3; 4100;34; 6850;90;93;183<br>\n4414;Rubio, Ricky;4011;Ricky Rubio;min;1;1;29;4;10;0;0;3;5;2;5;7;8;1;0;1;5;0;4;0;0;32.4;33.25;31.25;1;6800;1; 7400;1;13050;97;91;188<br>\n4314;Seraphin, Kevin;4289;Kevin Seraphin;was;1;0;2;0;1;0;0;0;0;0;1;1;0;0;0;1;2;0;-6;0;0;0.2;0.75;0.5;4;3500;4; 3500;45; 6200;105;98;203<br>\n4397;Shumpert, Iman;6468;Iman Shumpert;nyk;1;1;29;4;7;0;1;4;5;0;3;3;2;0;0;1;1;0;-2;0;0;17.6;18.25;17.25;3;4400;2; 3800;23; 7150;95;90;185<br>\n4460;Singler, Kyle;6469;Kyle Singler;det;1;1;24;2;6;1;4;0;0;1;2;3;0;0;0;1;1;0;-12;0;0;7.6;8.75;8.25;3;3800;3; 3000;23; 7500;91;97;188<br>\n4408;Smith, Greg;6530;Greg Smith;dal;1;0;3;0;1;0;0;0;0;2;1;3;0;0;0;0;0;0;1;0;0;3.6;3.75;3.5;4;3500;5; 3000;45; 5000;120;102;222<br>\n3669;Smith, J.R.;2444;J.R. Smith;nyk;1;0;25;5;10;1;3;0;0;0;1;1;7;2;0;2;2;0;6;0;0;24.7;26.25;25.5;2;6000;2; 5300;23;12000;95;90;185<br>\n4023;Smith, Jason;3232;Jason Smith;nyk;1;0;19;5;6;0;0;2;2;0;2;2;0;0;0;1;4;0;2;0;0;13.4;14;13.75;4;4800;5; 3000;45; 8650;95;90;185<br>\n3670;Smith, Josh;2411;Josh Smith;det;1;1;30;5;16;0;2;0;0;2;5;7;4;0;2;3;4;0;-16;0;0;25.4;27.25;24.5;3;7800;4; 7500;34;14500;91;97;188<br>\n3419;Stoudemire, Amare;1727;Amar\'e Stoudemire;nyk;1;0;24;3;8;0;0;2;2;0;4;4;2;0;0;1;3;0;-6;0;0;14.8;15.5;14.25;4;5500;4; 4800;45; 9100;95;90;185<br>\n3677;Telfair, Sebastian;2417;Sebastian Telfair;okc;1;0;38;2;9;1;5;6;8;0;2;2;7;1;0;2;4;0;3;0;0;23.9;25.5;23.75;1;3500;1; 3000;1; 5000;90;93;183<br>\n4199;Temple, Garrett;4023;Garrett Temple;was;1;1;34;4;8;2;3;2;2;0;1;1;1;0;0;0;3;0;20;0;0;14.7;15.75;15.75;1;3500;2; 3000;12; 5000;105;98;203<br>\n4384;Thomas, Lance;6485;Lance Thomas;okc;1;0;19;1;3;0;0;2;2;1;0;1;2;0;0;1;1;0;-16;0;0;7.2;7.75;7.25;3;3500;4; 3000;34; 5000;90;93;183<br>\n4380;Thompson, Tristan;6474;Tristan Thompson;cle;1;0;20;3;7;0;0;0;0;2;0;2;0;0;0;0;2;0;-1;0;0;8.4;8.5;7.5;4;4300;4; 5400;45; 8400;90;95;185<br>\n4354;Udoh, Ekpe;4261;Ekpe Udoh;lac;1;0;4;0;0;0;0;0;0;0;0;0;0;0;0;0;1;0;0;0;0;0;0;0;5;3500;5; 3000;45; 5000;93;90;183<br>\n3679;Varejao, Anderson;2419;Anderson Varejao;cle;1;1;27;4;5;0;0;2;2;3;1;4;1;1;1;2;0;0;-8;0;0;18.3;19.5;19.25;5;4800;5; 4200;45; 8650;90;95;185<br>\n3807;Villanueva, Charlie;2792;Charlie Villanueva;dal;1;0;2;0;0;0;0;0;0;0;1;1;0;0;0;0;2;0;-1;0;0;1.2;1.25;1.25;4;3500;4; 3000;4; 5000;120;102;222<br>\n4373;Vucevic, Nikola;6478;Nikola Vucevic;orl;1;1;38;11;21;0;0;1;1;1;11;12;3;1;0;2;3;0;-2;1;0;41.9;45;43;5;8400;5; 8000;45;14600;98;105;203<br>\n4515;Waiters, Dion;6628;Dion Waiters;cle;1;1;38;4;9;2;5;0;0;1;0;1;2;1;0;3;3;0;-2;0;0;13.2;15.75;15.5;2;4900;2; 4800;2; 7950;90;95;185<br>\n4321;Wall, John;4237;John Wall;was;1;1;37;10;21;2;5;8;9;0;5;5;12;2;0;2;2;0;16;1;0;56;59.75;58.25;1;8600;1; 9100;1;16400;105;98;203<br>\n4714;Wear, Travis;2488674;Travis Wear;nyk;1;0;13;0;1;0;0;2;2;0;2;2;2;0;0;1;1;0;1;0;0;6.4;7;6.75;4;3500;4; 3000;4; 5000;95;90;185<br>\n4079;Westbrook, Russell;3468;Russell Westbrook;okc;1;1;9;1;3;0;1;0;0;0;0;0;4;1;0;3;2;0;-3;0;0;7;8.5;8;1;10000;1; 9900;1;21000;90;93;183<br>\n4704;Wiggins, Andrew;3059319;Andrew Wiggins;min;1;1;24;4;9;0;0;0;3;0;4;4;1;1;0;3;1;0;13;0;0;13.3;15;13;3;6400;3; 5500;3;10400;97;91;188<br>\n3574;Williams, Maurice;2178;Mo Williams;min;1;0;24;6;11;0;3;1;2;0;2;2;4;0;0;0;5;0;3;0;0;21.4;21.5;20;1;4400;1; 3200;12; 6500;97;91;188<br>\n4034;Wright, Brandan;3242;Brandan Wright;dal;1;0;20;6;7;0;0;2;2;3;0;3;1;1;2;0;0;0;17;0;0;25.1;25.25;25;5;3800;4; 3400;45; 7350;120;102;222<br>\n4037;Young, Thaddeus;3244;Thaddeus Young;min;1;1;34;7;13;2;4;3;3;1;4;5;2;3;0;1;3;0;15;0;0;33;34.75;34.25;4;7500;4; 6700;34;12350;97;91;188<br>\n<hr>\n'
p15
ssg1
(S'\x07\xde\n\x1d\x00\x00\x00\x00\x00\x00'
p16
tp17
Rp18
(dp19
g6
S'http://rotoguru1.com/cgi-bin/hoopstat-daterange.pl?gameday=20141029&tmptmax=999&date=20141029&ha=&opptmax=999&saldate=20141029&opptmin=0&startdate=20141029&g=0&min=&gmptmax=999&gmptmin=0&tmptmin=0&sd=0'
p20
sg8
S'\n<center><IMG SRC="http://rotoguru1.com/images/gfs2.gif" WIDTH=316 HEIGHT=66 alt="[RotoGuru logo]"><br>\n<IMG SRC="http://rotoguru1.com/images/gfssubtitle.gif" WIDTH=316 HEIGHT=29 alt="[RotoGuru subtitle]">\n</P>\n\n<Font size=+2>NBA Player Stat Summarizer</font></P><P>\n\n\n<script async src="//pagead2.googlesyndication.com/pagead/js/adsbygoogle.js"></script>\n<!-- DBD-728x90 -->\n<ins class="adsbygoogle"\n     style="display:inline-block;width:728px;height:90px"\n     data-ad-client="ca-pub-8583726409420479"\n     data-ad-slot="1101218059"></ins>\n<script>\n(adsbygoogle = window.adsbygoogle || []).push({});\n</script>\n</center><hr>\n<!---- end header ---->\nSummarizing stats from 29 OCT 2014 (20141029) through 29 OCT 2014 (20141029), DFS salary data as of 29 OCT 2014 (20141029)<br><table border=0><tr><td valign=top>Selection criteria: &nbsp; </td><td>&#8226; teams scheduled on 29 OCT 2014<br>&#8226; all games played (started and not started)<br>&#8226; both home and away games</td></tr></table><hr>\ngid;name;espn_id;espn_name;team;gp;gs;min;fg;fga;3p;3pa;ft;fta;orb;drb;rb;ast;stl;blk;to;pf;dq;+/-;dd;td;fanduel pts;draftkings pts;draftday pts;fanduel position;fanduel salary;draftkings position;draftkings salary;draftday position;draftday salary;team pts;oppt pts;total pts<br>\n4496;Acy, Quincy;6576;Quincy Acy;nyk;1;0;21;3;6;0;0;0;0;2;4;6;1;0;1;2;4;0;-15;0;0;14.7;16;15.25;3;3500;4; 3000;4; 5000;80;104;184<br>\n4574;Adams, Steven;2991235;Steven Adams;okc;1;1;27;3;4;0;0;2;3;2;5;7;2;2;0;4;3;0;-4;0;0;19.4;21.75;21.25;5;3800;5; 3500;5; 5850;89;106;195<br>\n3970;Afflalo, Arron;3187;Arron Afflalo;den;1;1;40;6;16;2;5;1;3;1;3;4;1;1;0;1;1;0;19;0;0;22.3;24;22;2;6200;2; 5600;23;10250;89;79;168<br>\n4260;Aldrich, Cole;4267;Cole Aldrich;nyk;1;0;17;1;2;0;0;0;0;4;3;7;2;0;0;1;2;0;-8;0;0;12.4;13.25;13;5;3500;5; 3000;5; 5000;80;104;184<br>\n3860;Aldridge, LaMarcus;2983;LaMarcus Aldridge;por;1;1;34;10;19;1;1;6;8;1;2;3;2;1;2;2;0;0;6;0;0;37.6;39.25;37;4;9800;4; 9200;45;16700;106;89;195<br>\n4374;Allen, Lavoy;6424;Lavoy Allen;ind;1;0;20;3;5;0;0;0;0;1;4;5;2;1;2;0;4;0;23;0;0;21;21.25;20.75;4;3500;5; 3000;45; 5000;103;91;194<br>\n3619;Allen, Tony;2367;Tony Allen;mem;1;1;33;4;8;0;0;0;0;0;3;3;5;3;0;3;4;0;10;0;0;22.1;23.75;22.75;2;4800;2; 3900;23; 7400;105;101;206<br>\n3397;Andersen, Chris;1135;Chris Andersen;mia;1;0;24;2;2;0;0;3;4;2;4;6;1;2;1;0;0;0;5;0;0;21.7;22;21.75;5;3900;5; 3000;45; 6650;107;95;202<br>\n3853;Anderson, Alan;6569;Alan Anderson;bkn;1;0;25;1;4;0;3;2;2;0;2;2;1;0;1;1;2;0;-5;0;0;8.9;9.5;8.75;2;3500;2; 3000;23; 5100;105;121;226<br>\n4621;Antetokounmpo, Giannis;3032977;Giannis Antetokounmpo;mil;1;0;24;3;6;1;1;3;3;0;5;5;1;0;1;0;1;0;4;0;0;19.5;20.25;20;2;5900;2; 5600;23; 9700;106;108;214<br>\n3510;Anthony, Carmelo;1975;Carmelo Anthony;nyk;1;1;29;5;13;1;3;3;4;2;2;4;3;1;0;3;1;0;-9;0;0;22.3;24.5;22.75;4;10200;3; 9400;34;18400;80;104;184<br>\n3972;Anthony, Joel;3247;Joel Anthony;det;1;0;21;1;1;0;0;0;0;1;4;5;0;0;1;2;3;0;-13;0;0;8;9.25;9.25;5;3500;;;45; 5000;79;89;168<br>\n3621;Ariza, Trevor;2426;Trevor Ariza;hou;1;1;37;7;10;4;7;2;3;1;4;5;1;2;0;1;1;0;8;0;0;30.5;33.25;34.25;3;6100;3; 6200;23;11250;104;93;197<br>\n4080;Arthur, Darrell;3413;Darrell Arthur;den;1;0;16;1;7;0;1;0;0;1;3;4;3;0;0;1;2;0;3;0;0;10.3;11;9.5;4;3500;4; 3000;45; 5000;89;79;168<br>\n4078;Augustin, D.J.;3415;D.J. Augustin;det;1;0;28;5;10;2;6;3;4;0;6;6;3;0;0;3;2;0;-3;0;0;23.7;26.5;26;1;3900;1; 3600;1; 5200;79;89;168<br>\n4690;Bairstow, Cameron;2528354;Cameron Bairstow;chi;1;0;4;0;1;0;0;0;0;0;0;0;0;0;0;1;0;0;-7;0;0;-1;-0.5;-0.75;4;3500;4; 3000;4; 5000;104;80;184<br>\n3514;Barbosa, Leandro;2166;Leandro Barbosa;gsw;1;0;14;2;4;0;1;0;0;0;1;1;1;0;1;1;5;0;2;0;0;7.7;8.25;7.75;2;3500;1; 3000;12; 5000;95;77;172<br>\n4502;Barnes, Harrison;6578;Harrison Barnes;gsw;1;1;29;3;10;0;3;3;5;2;4;6;1;0;0;1;2;0;12;0;0;16.7;17.5;15.25;3;4200;3; 4300;34; 6000;95;77;172<br>\n4522;Barton, Will;6579;Will Barton;por;1;0;2;0;0;0;0;0;0;0;0;0;0;0;0;0;0;0;1;0;0;0;0;0;2;3500;2; 3000;2; 5000;106;89;195<br>\n3733;Bass, Brandon;2745;Brandon Bass;bos;1;0;16;4;7;0;1;0;0;1;1;2;1;2;0;3;0;0;3;0;0;12.9;14.5;13.75;4;4800;4; 4200;45; 6350;121;105;226<br>\n4086;Batum, Nicolas;3416;Nicolas Batum;por;1;1;34;5;12;2;5;4;4;0;5;5;6;1;1;2;2;0;7;0;0;33;35.25;34.5;3;7300;3; 7300;23;12600;106;89;195<br>\n4076;Bayless, Jerryd;3417;Jerryd Bayless;mil;1;0;14;2;3;0;0;0;0;0;0;0;2;0;0;1;2;0;10;0;0;6;6.5;6.25;1;3700;1; 3000;12; 5000;106;108;214<br>\n4507;Bazemore, Kent;6637;Kent Bazemore;atl;1;0;11;1;2;0;0;0;0;0;1;1;0;1;1;0;1;0;-6;0;0;7.2;7.25;7;2;4000;2; 3000;23; 5150;102;109;211<br>\n4619;Bennett, Anthony;2991473;Anthony Bennett;min;1;0;14;4;8;0;0;1;2;0;3;3;1;0;0;3;1;0;2;0;0;11.1;12.75;11.5;4;3600;3; 3900;34; 5700;101;105;206<br>\n4234;Beverley, Patrick;3964;Patrick Beverley;hou;1;1;31;3;6;1;3;0;0;0;2;2;2;1;0;2;3;0;19;0;0;12.4;14;13.75;1;4900;1; 5100;12; 9350;104;93;197<br>\n4691;Black, Tarik;2528393;Tarik Black;hou;1;0;16;1;5;0;0;0;0;0;2;2;0;1;0;0;1;0;4;0;0;6.4;6.5;5.5;4;3500;4; 3000;4; 5000;104;93;197<br>\n3518;Blake, Steve;1994;Steve Blake;por;1;0;20;0;4;0;3;1;2;1;4;5;5;0;0;0;1;0;13;0;0;14.5;14.75;13.5;1;4200;1; 3000;12; 5700;106;89;195<br>\n4266;Bledsoe, Eric;4238;Eric Bledsoe;pho;1;1;26;5;7;3;4;3;3;1;5;6;9;0;0;1;2;0;28;0;0;35.7;38;39;2;7400;2; 7000;12;13200;119;99;218<br>\n4709;Bogdanovic, Bojan;3593;Bojan Bogdanovic;bkn;1;1;26;3;6;1;2;0;0;0;0;0;2;0;1;2;3;0;-8;0;0;10;11.5;11.25;3;4800;2; 5000;2; 5300;105;121;226<br>\n3736;Bogut, Andrew;2747;Andrew Bogut;gsw;1;1;18;2;2;0;0;0;0;0;5;5;0;0;4;1;4;0;11;0;0;17;17.75;17.75;5;5700;5; 5300;5; 9750;95;77;172<br>\n4267;Booker, Trevor;4270;Trevor Booker;uta;1;0;23;6;10;0;1;2;2;2;3;5;0;0;0;1;2;0;8;0;0;19;19.75;18.75;4;3900;4; 3000;4; 5000;93;104;197<br>\n3461;Boozer, Carlos;1703;Carlos Boozer;lal;1;1;23;2;6;0;0;0;0;0;4;4;1;1;0;8;2;0;-25;0;0;4.3;8.5;7.5;4;6600;4; 7000;45;11550;99;119;218<br>\n3521;Bosh, Chris;1977;Chris Bosh;mia;1;1;39;9;18;3;4;5;5;4;11;15;4;1;1;3;1;0;12;1;0;51;56.25;56;5;8700;5; 8100;45;13950;107;95;202<br>\n4269;Bradley, Avery;4240;Avery Bradley;bos;1;1;30;7;13;1;3;0;0;0;0;0;0;0;0;1;5;0;-4;0;0;14;15;14;2;6200;1; 4600;12; 8650;121;105;226<br>\n3008;Brand, Elton;91;Elton Brand;atl;1;0;12;1;1;0;0;0;2;0;1;1;0;0;0;1;1;0;0;0;0;2.2;2.75;2.25;4;3500;5; 3200;45; 5000;102;109;211<br>\n3975;Brewer, Corey;3191;Corey Brewer;min;1;1;27;2;7;0;2;2;2;2;2;4;0;1;0;2;3;0;-16;0;0;10.8;12;10.75;3;4800;3; 4100;23; 7100;101;105;206<br>\n3976;Brooks, Aaron;3192;Aaron Brooks;chi;1;0;24;4;5;1;1;4;4;0;2;2;6;1;0;1;3;0;25;0;0;25.4;26.5;26.75;1;4700;1; 3000;1; 5000;104;80;184<br>\n1881;Bryant, Kobe;110;Kobe Bryant;lal;1;1;28;11;25;2;4;7;7;1;3;4;3;2;0;2;2;0;-26;0;0;42.3;44.5;42;2;9000;2; 7800;12;13700;99;119;218<br>\n4196;Budinger, Chase;3968;Chase Budinger;min;1;0;15;0;4;0;1;0;0;0;4;4;0;0;0;0;0;0;-1;0;0;4.8;5;4;3;4000;3; 3000;23; 5000;101;105;206<br>\n4615;Burke, Trey;2579260;Trey Burke;uta;1;1;38;6;16;0;4;3;4;1;0;1;4;0;0;2;1;0;-14;0;0;20.2;21.25;18.5;1;6100;1; 6500;1;11350;93;104;197<br>\n4441;Burks, Alec;6429;Alec Burks;uta;1;1;36;6;11;1;2;5;6;1;2;3;2;1;0;2;2;0;-14;0;0;24.6;26.25;25.25;2;5100;2; 5900;12; 9850;93;104;197<br>\n3401;Butler, Caron;1705;Caron Butler;det;1;0;23;0;5;0;3;0;0;1;5;6;1;1;0;1;2;0;-3;0;0;9.7;10.5;9.25;3;3600;3; 3700;3; 6250;79;89;168<br>\n3463;Butler, Rasual;1767;Rasual Butler;was;1;0;10;1;3;1;2;0;0;1;0;1;0;0;0;0;0;0;-13;0;0;4.2;4.75;4.75;3;3600;2; 3000;23; 5000;95;107;202<br>\n4616;Caldwell-Pope, Kentavious;2581018;Kentavious Caldwell-Pope;det;1;1;36;3;19;1;8;0;0;2;5;7;3;0;1;1;1;0;-4;0;0;20.9;22.25;18.75;2;3800;2; 3600;2; 5100;79;89;168<br>\n4569;Canaan, Isaiah;2490589;Isaiah Canaan;hou;1;0;8;1;3;1;1;0;0;1;0;1;0;0;0;0;0;0;-12;0;0;4.2;4.75;4.75;1;3600;1; 3000;1; 5000;104;93;197<br>\n4203;Carroll, DeMarre;3970;DeMarre Carroll;atl;1;1;32;4;7;2;3;0;0;1;2;3;0;0;0;0;4;0;-4;0;0;13.6;14.75;15;3;5300;4; 5100;34; 8600;102;109;211<br>\n2448;Carter, Vince;136;Vince Carter;mem;1;0;16;1;7;0;4;2;2;0;1;1;1;1;0;0;4;0;-5;0;0;8.7;8.75;7.25;3;5400;2; 4900;23; 8850;105;101;206<br>\n4209;Casspi, Omri;3554;Omri Casspi;sac;1;0;15;1;3;0;1;2;2;0;2;2;1;0;0;2;2;0;-12;0;0;5.9;7;6.5;3;3800;3; 3000;3; 5300;77;95;172<br>\n4088;Chalmers, Mario;3419;Mario Chalmers;mia;1;0;25;3;7;1;3;1;1;0;4;4;4;1;0;3;5;0;1;0;0;17.8;20;19.5;1;4900;1; 5800;1; 8900;107;95;202<br>\n3978;Chandler, Wilson;3194;Wilson Chandler;den;1;0;24;1;6;1;4;4;4;0;3;3;1;2;0;2;1;0;-1;0;0;14.1;15.75;15;3;5200;3; 4600;23; 9150;89;79;168<br>\n4668;Clarkson, Jordan;2528426;Jordan Clarkson;lal;1;0;15;2;6;0;0;0;0;0;2;2;2;0;0;0;1;0;11;0;0;9.4;9.5;8.5;2;3500;1; 3000;1; 5000;99;119;218<br>\n4370;Cole, Norris;6431;Norris Cole;mia;1;1;28;9;15;3;7;2;2;0;3;3;2;0;0;3;1;0;6;0;0;26.6;29.75;29.75;1;4300;1; 4200;1; 5650;107;95;202<br>\n4228;Collison, Darren;3973;Darren Collison;sac;1;1;36;4;12;1;4;4;6;0;4;4;8;5;1;1;2;0;-5;0;0;40.8;42;40;1;5500;1; 6000;1; 9100;77;95;172<br>\n3523;Collison, Nick;1978;Nick Collison;okc;1;0;19;1;5;0;3;0;1;0;3;3;3;2;0;0;4;0;-14;0;0;14.1;14.25;13;4;3500;5; 3000;45; 5000;89;106;195<br>\n3979;Conley, Mike;3195;Mike Conley;mem;1;1;34;7;14;1;4;1;3;1;0;1;6;1;0;1;3;0;15;0;0;27.2;28.25;26.5;1;7800;1; 7200;1;12650;105;101;206<br>\n4544;Copeland, Chris;6635;Chris Copeland;ind;1;0;26;4;11;2;7;1;2;0;2;2;2;0;1;1;1;0;14;0;0;17.4;19;18;3;3500;4; 3300;34; 6200;103;91;194<br>\n4274;Cousins, DeMarcus;4258;DeMarcus Cousins;sac;1;1;31;4;14;0;0;12;18;3;8;11;1;1;0;6;5;0;-7;1;0;30.7;35.75;32.25;5;9900;5;10000;45;16950;77;95;172<br>\n4561;Crabbe, Allen;2531210;Allen Crabbe;por;1;0;2;1;1;1;1;0;0;0;1;1;0;0;0;0;0;0;1;0;0;4.2;4.75;5.25;2;3500;2; 3000;2; 5000;106;89;195<br>\n4173;Curry, Stephen;3975;Stephen Curry;gsw;1;1;37;7;17;2;9;8;9;1;9;10;5;6;0;4;5;0;20;1;0;51.5;56.5;55.25;1;9600;1;10100;12;18750;95;77;172<br>\n3338;Dalembert, Samuel;991;Samuel Dalembert;nyk;1;1;20;2;5;0;0;2;2;2;2;4;2;0;3;1;2;0;-3;0;0;18.8;19.5;18.75;5;4800;5; 4000;5; 7050;80;104;184<br>\n4584;Davies, Brandon;2490144;Brandon Davies;phi;1;0;18;5;11;0;2;2;2;4;1;5;1;1;0;1;3;0;1;0;0;20.5;21.25;19.75;4;3500;4; 3000;4; 5000;91;103;194<br>\n4276;Davis, Ed;4259;Ed Davis;lal;1;0;33;6;10;0;0;2;5;6;3;9;3;2;2;0;5;0;3;0;0;37.3;37.75;36;4;3700;4; 3900;45; 5050;99;119;218<br>\n3629;Deng, Luol;2429;Luol Deng;mia;1;1;30;4;8;0;2;4;5;2;2;4;1;0;1;2;2;0;5;0;0;18.3;19.5;18.25;3;7600;3; 6400;34;11450;107;95;202<br>\n4211;DeRozan, DeMar;3978;DeMar DeRozan;tor;1;1;35;4;16;0;1;7;10;3;8;11;3;6;0;5;3;0;4;1;0;39.7;44.25;41;2;8200;2; 7800;23;13600;109;102;211<br>\n4632;Dieng, Gorgui;2534781;Gorgui Dieng;min;1;0;19;3;4;0;0;0;0;4;4;8;1;0;3;1;1;0;13;0;0;22.1;23;22.75;5;5200;5; 5400;5; 9050;101;105;206<br>\n4760;Dinwiddie, Spencer;2580782;Spencer Dinwiddie;det;1;0;8;0;1;0;0;0;0;0;0;0;1;0;0;0;1;0;-3;0;0;1.5;1.5;1.25;;;1; 3000;1; 5000;79;89;168<br>\n4092;Dragic, Goran;3423;Goran Dragic;pho;1;1;26;6;12;0;2;6;6;0;5;5;2;1;0;1;2;0;30;0;0;28;28.75;27.25;1;8100;1; 7300;12;12100;119;99;218<br>\n4489;Drummond, Andre;6585;Andre Drummond;det;1;1;27;5;10;0;0;1;4;3;6;9;1;2;1;1;6;1;3;0;0;28.3;29.25;27.25;5;8700;5; 8700;45;14150;79;89;168<br>\n3985;Dudley, Jared;3201;Jared Dudley;mil;1;1;26;1;1;1;1;0;0;0;2;2;2;2;1;1;1;0;-2;0;0;13.4;14.5;15;3;3600;3; 3300;23; 5000;106;108;214<br>\n3404;Dunleavy, Mike;1708;Mike Dunleavy;chi;1;1;31;0;5;0;4;0;0;0;3;3;4;1;0;1;1;0;17;0;0;10.6;11.25;10;3;4900;3; 4400;23; 8600;104;80;184<br>\n4726;Early, Cleanthony;2991227;Cleanthony Early;nyk;1;0;7;1;1;0;0;0;0;0;0;0;0;0;0;1;0;0;8;0;0;1;1.5;1.5;3;3500;3; 3000;3; 5000;80;104;184<br>\n4185;Ellington, Wayne;3981;Wayne Ellington;lal;1;0;25;6;9;1;3;0;0;0;1;1;0;1;0;0;1;0;12;0;0;16.2;16.75;16.5;2;3500;2; 3000;2; 5000;99;119;218<br>\n4697;Ennis, James;2579321;James Ennis;mia;1;0;15;2;4;0;2;1;1;0;2;2;0;0;0;0;1;0;7;0;0;7.4;7.5;7;3;3500;2; 3000;23; 5000;107;95;202<br>\n4729;Ennis, Tyler;3059281;Tyler Ennis;pho;1;0;13;1;2;0;0;0;0;0;0;0;3;0;1;3;1;0;-5;0;0;5.5;7;6.75;1;3500;1; 3000;1; 5000;119;99;218<br>\n3430;Evans, Reggie;1828;Reggie Evans;sac;1;0;7;0;3;0;0;0;0;2;3;5;1;0;0;1;0;0;3;0;0;6.5;7.25;6.5;4;3500;4; 3000;45; 5000;77;95;172<br>\n4707;Exum, Dante;3102528;Dante Exum;uta;1;0;10;2;3;1;1;0;0;0;0;0;1;1;0;1;0;0;3;0;0;7.5;8.5;8.75;1;3700;1; 5500;1; 5850;93;104;197<br>\n4503;Ezeli, Festus;6587;Festus Ezeli;gsw;1;0;8;2;2;0;0;1;2;0;1;1;0;0;0;0;4;0;-1;0;0;6.2;6.25;6;5;3500;5; 3000;5; 5000;95;77;172<br>\n4456;Faried, Kenneth;6433;Kenneth Faried;den;1;1;28;8;12;0;0;6;8;7;10;17;4;0;0;3;4;0;4;1;0;45.4;49.25;48.25;4;7300;4; 7300;4;11500;89;79;168<br>\n4280;Favors, Derrick;4257;Derrick Favors;uta;1;1;27;7;10;0;0;2;3;5;2;7;2;3;4;3;4;0;0;0;0;38.4;40.25;39.25;4;6000;5; 7300;45;12300;93;104;197<br>\n3858;Foye, Randy;3003;Randy Foye;den;1;0;15;2;6;1;2;2;2;0;0;0;0;2;0;1;2;0;0;0;0;10;11;10.5;2;5600;1; 4300;12; 8050;89;79;168<br>\n3958;Freeland, Joel;3004;Joel Freeland;por;1;0;6;0;1;0;0;0;0;1;1;2;0;0;1;0;1;0;4;0;0;4.4;4.5;4.25;5;3500;5; 3000;45; 5000;106;89;195<br>\n4082;Gallinari, Danilo;3428;Danilo Gallinari;den;1;1;18;1;8;1;5;4;4;0;3;3;2;1;1;1;1;0;5;0;0;16.6;17.75;16.5;3;5900;3; 5100;3; 9000;89;79;168<br>\n1449;Garnett, Kevin;261;Kevin Garnett;bkn;1;1;23;5;8;0;0;0;0;0;6;6;3;0;0;4;2;0;-11;0;0;17.7;20;19.25;4;4600;4; 4900;45; 7550;105;121;226<br>\n3990;Gasol, Marc;3206;Marc Gasol;mem;1;1;37;12;17;0;0;8;10;2;7;9;3;2;2;3;1;0;9;0;0;52.3;54.25;52.5;5;8000;5; 7800;5;13000;105;101;206<br>\n3308;Gasol, Pau;996;Pau Gasol;chi;1;1;29;7;11;0;0;7;8;4;7;11;0;0;0;1;1;0;15;1;0;33.2;35.75;35;4;7600;4; 7300;45;12300;104;80;184<br>\n3857;Gay, Rudy;3005;Rudy Gay;sac;1;1;34;5;15;0;2;4;5;2;7;9;0;1;1;3;3;0;-10;0;0;25.8;27.75;25;3;7800;3; 7500;34;12900;77;95;172<br>\n4239;Gee, Alonzo;4232;Alonzo Gee;den;1;0;12;1;2;1;1;0;0;0;0;0;0;1;0;0;1;0;8;0;0;5;5.5;5.75;3;3500;3; 3000;23; 5000;89;79;168<br>\n4167;Gibson, Taj;3986;Taj Gibson;chi;1;0;28;10;12;0;0;2;4;3;5;8;1;1;1;0;1;0;28;0;0;37.1;37.5;36.5;4;5600;4; 5700;45;10100;104;80;184<br>\n4620;Gobert, Rudy;3032976;Rudy Gobert;uta;1;0;20;1;1;0;0;0;0;1;2;3;0;1;0;1;3;0;-10;0;0;6.6;7.25;7.25;5;3500;5; 3500;5; 5500;93;104;197<br>\n3406;Gooden, Drew;1711;Drew Gooden;was;1;1;34;8;11;1;2;1;4;2;3;5;1;0;0;2;3;0;-2;0;0;23.5;25.25;24.25;4;4300;4; 3000;45; 5400;95;107;202<br>\n4593;Goodwin, Archie;2991281;Archie Goodwin;pho;1;0;10;0;2;0;0;0;0;0;1;1;1;0;0;0;1;0;-13;0;0;2.7;2.75;2.25;1;3500;2; 3000;2; 5000;119;99;218<br>\n3756;Gortat, Marcin;2758;Marcin Gortat;was;1;1;40;7;14;0;0;4;5;1;6;7;0;0;1;0;3;0;3;0;0;28.4;28.75;26.75;5;7400;5; 6600;5;11350;95;107;202<br>\n4504;Green, Draymond;6589;Draymond Green;gsw;1;1;34;4;7;2;2;2;4;2;8;10;3;1;0;5;2;0;22;1;0;25.5;31;31.25;3;5000;3; 5100;3; 9150;95;77;172<br>\n3760;Green, Gerald;2761;Gerald Green;pho;1;0;22;2;8;0;3;0;0;0;1;1;2;1;0;3;2;0;-11;0;0;7.2;8.75;7.25;3;4800;2; 4600;23; 8250;119;99;218<br>\n3992;Green, Jeff;3209;Jeff Green;bos;1;1;36;4;10;2;3;7;9;2;4;6;3;2;0;0;5;0;15;0;0;32.7;34;33;3;6500;3; 6300;23;10750;121;105;226<br>\n4171;Hansbrough, Tyler;3991;Tyler Hansbrough;tor;1;0;20;2;2;0;0;1;1;1;1;2;0;0;1;0;3;0;-1;0;0;9.4;9.5;9.5;4;3500;4; 3000;45; 5000;109;102;211<br>\n4628;Hardaway Jr., Tim;2528210;Tim Hardaway Jr.;nyk;1;0;18;2;10;1;6;2;2;0;0;0;1;0;0;0;2;0;-22;0;0;8.5;9;7.5;2;4600;2; 4200;2; 6400;80;104;184<br>\n4224;Harden, James;3992;James Harden;hou;1;1;38;6;18;1;5;5;6;1;6;7;10;0;1;6;5;0;21;1;0;37.4;42.75;40.5;2;9900;2;10200;23;18300;104;93;197<br>\n4285;Hayward, Gordon;4249;Gordon Hayward;uta;1;1;38;3;11;0;3;2;2;2;6;8;7;1;0;1;1;0;-8;0;0;29.1;30;28;3;6700;2; 7400;23;13100;93;104;197<br>\n4190;Henderson, Gerald;3993;Gerald Henderson;cha;1;0;9;0;2;0;0;0;0;1;0;1;1;1;0;1;1;0;-9;0;0;3.7;4.25;3.75;3;4700;2; 4000;;;108;106;214<br>\n4525;Henson, John;6592;John Henson;mil;1;0;12;2;3;0;0;1;2;0;0;0;0;0;2;0;0;0;9;0;0;9;9;8.5;4;5400;4; 5500;45; 9200;106;108;214<br>\n4101;Hibbert, Roy;3436;Roy Hibbert;ind;1;1;32;6;8;0;0;10;13;3;5;8;0;0;7;3;2;0;18;0;0;42.6;44.5;43.25;5;5800;5; 6900;5;11050;103;91;194<br>\n4179;Hill, Jordan;3994;Jordan Hill;lal;1;1;25;2;7;0;0;2;2;5;6;11;2;0;0;0;4;0;-24;0;0;22.2;22.75;21.5;5;5100;4; 5900;45;10400;99;119;218<br>\n4566;Hill, Solomon;2488958;Solomon Hill;ind;1;1;23;1;3;1;2;0;0;2;4;6;2;0;2;1;2;0;-4;0;0;16.2;17.5;17.5;3;4300;3; 4100;3; 5000;103;91;194<br>\n3538;Hinrich, Kirk;1981;Kirk Hinrich;chi;1;1;24;4;10;3;7;1;1;0;1;1;0;1;0;2;3;0;8;0;0;13.2;15.75;15.75;1;4600;1; 3600;12; 6850;104;80;184<br>\n4558;Holiday, Justin;2284101;Justin Holiday;gsw;1;0;4;0;0;0;0;0;0;0;0;0;1;0;1;0;1;0;-9;0;0;3.5;3.5;3.5;3;3500;3; 3000;3; 5000;95;77;172<br>\n3898;Hollins, Ryan;3008;Ryan Hollins;sac;1;0;2;1;1;0;0;0;0;0;1;1;0;0;0;0;0;0;-1;0;0;3.2;3.25;3.25;5;3500;5; 3000;5; 5000;77;95;172<br>\n4744;Hood, Rodney;2581177;Rodney Hood;uta;1;0;21;2;6;1;4;0;0;0;2;2;0;1;2;1;0;0;-8;0;0;12.4;13.5;13;3;4200;3; 3000;3; 5000;93;104;197<br>\n3998;Horford, Al;3213;Al Horford;atl;1;1;31;6;15;0;0;0;0;4;9;13;3;1;3;1;2;0;-7;1;0;39.1;41.75;40;5;7600;5; 7800;45;13900;102;109;211<br>\n3639;Howard, Dwight;2384;Dwight Howard;hou;1;1;32;10;16;0;0;2;3;3;7;10;0;1;2;6;6;1;7;1;0;34;39;37.75;5;9500;5; 8800;45;15650;104;93;197<br>\n3640;Humphries, Kris;2433;Kris Humphries;was;1;0;13;2;6;0;0;0;0;0;2;2;0;0;0;2;3;0;-9;0;0;4.4;5.5;4.5;4;4400;5; 3400;45; 6300;95;107;202<br>\n4104;Ibaka, Serge;3439;Serge Ibaka;okc;1;1;29;4;11;1;3;1;2;2;6;8;2;0;4;5;5;0;-3;0;0;25.6;29;27.5;4;8000;4; 7500;45;12550;89;106;195<br>\n3641;Iguodala, Andre;2386;Andre Iguodala;gsw;1;0;29;1;6;0;4;0;2;0;3;3;2;3;0;2;2;0;25;0;0;12.6;13.75;12;3;5700;3; 5100;23; 9350;95;77;172<br>\n3765;Ilyasova, Ersan;2767;Ersan Ilyasova;mil;1;0;12;3;3;0;0;0;0;0;1;1;0;2;1;0;5;0;10;0;0;13.2;13.25;13.25;4;5900;4; 5200;34; 9750;106;108;214<br>\n4701;Ingles, Joe;2968436;Joe Ingles;uta;1;0;4;0;1;0;1;0;0;0;0;0;0;0;0;0;0;0;0;0;0;0;0;-0.25;;;;;;;93;104;197<br>\n3766;Jack, Jarrett;2768;Jarrett Jack;bkn;1;0;30;5;9;0;0;1;2;0;2;2;2;2;0;1;1;0;-7;0;0;19.4;20;18.75;1;4600;2; 4800;12; 7700;105;121;226<br>\n3645;Jefferson, Al;2389;Al Jefferson;cha;1;1;40;6;15;0;0;2;3;2;8;10;2;2;4;2;4;0;5;1;0;39;42;40;5;9500;5; 9100;;;108;106;214<br>\n4684;Jefferson, Cory;2488845;Cory Jefferson;bkn;1;0;9;2;2;0;0;4;6;1;1;2;0;0;0;0;1;0;16;0;0;10.4;10.5;10;4;3500;4; 3000;4; 5000;105;121;226<br>\n4182;Jennings, Brandon;3997;Brandon Jennings;det;1;1;20;2;4;0;0;0;0;0;4;4;2;0;0;3;0;0;-7;0;0;8.8;10.5;10;1;7400;1; 7200;1;12350;79;89;168<br>\n4187;Jerebko, Jonas;3998;Jonas Jerebko;det;1;0;12;3;5;1;2;0;0;0;1;1;0;0;0;0;3;0;3;0;0;8.2;8.75;8.75;4;3500;4; 3000;34; 5000;79;89;168<br>\n3768;Johnson, Amir;2769;Amir Johnson;tor;1;1;31;7;15;0;0;2;2;5;5;10;2;0;4;0;2;0;1;1;0;39;41;39.5;4;5300;4; 5400;45; 9500;109;102;211<br>\n4555;Johnson, Chris;2325975;Chris Johnson;phi;1;1;32;5;10;1;4;1;2;0;1;1;1;1;0;2;1;0;1;0;0;14.7;16.25;15.25;3;3600;3; 3000;34; 9750;91;103;194<br>\n4168;Johnson, James;3999;James Johnson;tor;1;0;14;0;2;0;0;2;2;0;0;0;2;2;1;2;0;0;2;0;0;9;10;9.5;3;3900;3; 4000;34; 5750;109;102;211<br>\n3304;Johnson, Joe;1007;Joe Johnson;bkn;1;1;34;7;19;2;5;3;5;2;4;6;3;1;0;2;4;0;-30;0;0;30.7;33;30.5;2;5900;2; 6100;23;10800;105;121;226<br>\n4292;Johnson, Wesley;4247;Wesley Johnson;lal;1;1;28;2;7;0;1;5;5;0;1;1;2;1;1;0;1;0;-30;0;0;17.2;17.25;16;3;4600;3; 4000;23; 7900;99;119;218<br>\n4533;Jones III, Perry;6598;Perry Jones;okc;1;1;31;1;9;0;3;1;2;1;2;3;0;0;0;0;2;0;2;0;0;6.6;6.75;4.5;3;5000;3; 3000;34; 5000;89;106;195<br>\n4511;Jones, Terrence;6597;Terrence Jones;hou;1;1;26;4;5;1;1;0;0;1;2;3;1;0;2;1;5;0;6;0;0;17.1;18.25;18.5;4;5700;3; 6300;34;10900;104;93;197<br>\n4295;Jordan, Jerome;4280;Jerome Jordan;bkn;1;0;6;0;0;0;0;0;0;1;1;2;0;0;0;1;2;0;-12;0;0;1.4;2;2;;;5; 3000;5; 5000;105;121;226<br>\n3545;Kaman, Chris;1982;Chris Kaman;por;1;0;22;6;10;0;0;0;0;1;5;6;2;0;1;2;2;0;11;0;0;22.2;23.5;22.5;5;4900;5; 3000;45; 5750;106;89;195<br>\n4442;Kanter, Enes;6447;Enes Kanter;uta;1;1;22;5;12;0;2;0;0;1;4;5;0;0;0;1;3;0;-12;0;0;15;15.75;14;5;4700;5; 6100;5; 9500;93;104;197<br>\n4618;Karasev, Sergey;2959745;Sergey Karasev;bkn;1;0;3;0;0;0;0;0;0;0;3;3;0;0;0;1;0;0;3;0;0;2.6;3.25;3.25;2;3500;2; 3000;2; 5000;105;121;226<br>\n4532;Kidd-Gilchrist, Michael;6601;Michael Kidd-Gilchrist;cha;1;1;34;6;8;0;0;5;6;3;5;8;3;0;3;1;4;0;1;0;0;36.1;37;36.25;3;3600;3; 4000;;;108;106;214<br>\n3031;Kirilenko, Andrei;434;Andrei Kirilenko;bkn;1;0;10;0;3;0;0;3;4;2;1;3;0;1;0;0;0;0;-8;0;0;8.6;8.75;7.75;3;5100;3; 3700;34; 7200;105;121;226<br>\n4382;Knight, Brandon;6448;Brandon Knight;mil;1;1;39;5;17;2;4;10;10;0;8;8;13;0;1;4;3;0;-12;1;0;49.1;54;52.5;1;6300;1; 6400;12;11200;106;108;214<br>\n3547;Korver, Kyle;2011;Kyle Korver;atl;1;1;33;7;10;6;7;0;0;0;2;2;2;0;3;2;1;0;6;0;0;29.4;33.5;35.75;2;4400;2; 5100;23; 9100;102;109;211<br>\n4109;Koufos, Kosta;3444;Kosta Koufos;mem;1;0;5;0;0;0;0;0;0;0;1;1;0;0;0;1;0;0;-2;0;0;0.2;0.75;0.75;5;3900;5; 3000;45; 5900;105;101;206<br>\n4600;Kuzmic, Ognjen;6602;Ognjen Kuzmic;gsw;1;0;6;0;0;0;0;0;0;0;1;1;0;0;1;0;4;0;-10;0;0;3.2;3.25;3.25;5;3500;5; 3000;5; 5000;95;77;172<br>\n4003;Landry, Carl;3217;Carl Landry;sac;1;0;17;3;5;0;0;2;2;5;2;7;0;0;0;2;1;0;-3;0;0;14.4;15.75;15.25;4;4000;4; 3000;34; 6100;77;95;172<br>\n4655;Larkin, Shane;2596158;Shane Larkin;nyk;1;1;26;2;6;0;2;2;2;0;2;2;3;1;0;0;2;0;-17;0;0;14.9;15;14;1;3500;1; 3000;1; 5000;80;104;184<br>\n4159;Lawson, Ty;4000;Ty Lawson;den;1;1;33;1;7;0;3;1;2;0;0;0;5;0;0;2;2;0;10;0;0;8.5;9.5;7.75;1;8100;1; 8000;1;13600;89;79;168<br>\n4110;Lee, Courtney;3445;Courtney Lee;mem;1;1;36;5;11;2;4;2;2;1;0;1;3;2;1;3;2;0;8;0;0;22.7;25.25;24.75;2;4100;2; 4000;23; 6700;105;101;206<br>\n4591;Len, Alex;2596107;Alex Len;pho;1;0;19;1;4;0;0;1;1;1;4;5;0;0;1;1;1;0;25;0;0;10;10.75;10;5;3500;5; 3000;5; 5250;119;99;218<br>\n4411;Leuer, Jon;6452;Jon Leuer;mem;1;0;19;0;4;0;0;0;0;0;3;3;0;0;1;0;1;0;-8;0;0;5.6;5.75;4.75;4;3500;4; 3000;45; 5050;105;101;206<br>\n4523;Lillard, Damian;6606;Damian Lillard;por;1;1;30;3;10;2;7;2;2;0;2;2;5;1;0;1;4;0;9;0;0;20.9;22.5;21.75;1;8300;1; 8700;1;13700;106;89;195<br>\n4297;Lin, Jeremy;4299;Jeremy Lin;lal;1;1;21;2;5;0;2;2;2;0;2;2;1;0;0;2;0;0;-28;0;0;7.9;9;8.25;1;5500;1; 6400;12;10800;99;119;218<br>\n3651;Livingston, Shaun;2393;Shaun Livingston;gsw;1;0;4;0;0;0;0;0;0;0;0;0;0;0;0;0;0;0;-2;0;0;0;0;0;1;3900;1; 3400;12; 6200;95;77;172<br>\n4112;Lopez, Robin;3447;Robin Lopez;por;1;1;32;4;11;0;0;3;4;7;3;10;0;1;2;0;2;0;12;1;0;29;31;29.5;5;5800;5; 6100;5; 9900;106;89;195<br>\n3891;Lowry, Kyle;3012;Kyle Lowry;tor;1;1;34;3;11;0;3;5;7;3;3;6;10;3;1;0;3;0;-3;1;0;41.2;43;41;1;8500;1; 8100;1;15150;109;102;211<br>\n4377;Mack, Shelvin;6454;Shelvin Mack;atl;1;0;15;1;6;0;2;0;0;0;2;2;5;0;0;1;1;0;-6;0;0;10.9;11.5;10.25;1;3800;1; 3000;1; 5000;102;109;211<br>\n3777;Mahinmi, Ian;2774;Ian Mahinmi;ind;1;0;16;2;4;0;0;0;0;3;6;9;1;0;1;2;1;0;-6;0;0;16.3;17.75;17.25;5;3500;5; 3000;5; 5000;103;91;194<br>\n4164;Matthews, Wes;4032;Wesley Matthews;por;1;1;35;8;12;5;9;1;2;1;3;4;2;0;1;0;3;0;3;0;0;31.8;34.5;35.75;2;5800;2; 6200;23;10650;106;89;195<br>\n3779;Maxiell, Jason;2775;Jason Maxiell;cha;1;0;13;2;5;0;0;0;0;1;1;2;0;0;1;0;2;0;-3;0;0;8.4;8.5;7.75;5;3500;4; 3000;;;108;106;214<br>\n4072;Mayo, O.J.;3450;O.J. Mayo;mil;1;0;24;6;10;3;6;2;2;1;2;3;3;0;1;1;4;0;5;0;0;26.1;28.25;28.75;2;4500;2; 3700;12; 6000;106;108;214<br>\n4586;McCallum, Ray;2528447;Ray McCallum;sac;1;0;2;0;0;0;0;0;0;0;0;0;0;0;0;0;0;0;-1;0;0;0;0;0;1;3800;1; 3300;1; 5000;77;95;172<br>\n4657;McCollum, C.J.;2490149;C.J. McCollum;por;1;0;16;1;4;0;2;0;0;1;1;2;1;0;0;3;3;0;13;0;0;2.9;4.5;3.75;2;3900;1; 3000;12; 5000;106;89;195<br>\n4675;McDaniels, K.J.;2566741;K.J. McDaniels;phi;1;0;20;1;5;0;1;0;2;1;1;2;1;1;1;1;1;0;-15;0;0;8.9;9.5;8;4;3500;3; 5200;3; 9300;91;103;194<br>\n4669;McDermott, Doug;2528588;Doug McDermott;chi;1;0;24;5;9;2;5;0;0;1;4;5;2;1;0;1;2;0;16;0;0;22;23.75;23.75;3;4800;3; 3300;3; 5000;104;80;184<br>\n4114;McGee, JaVale;3452;JaVale McGee;den;1;0;9;1;2;0;0;0;0;0;2;2;0;0;1;1;1;0;0;0;0;5.4;6;5.75;5;5000;5; 4700;5; 8700;89;79;168<br>\n4589;McLemore, Ben;2578213;Ben McLemore;sac;1;1;26;0;5;0;2;0;0;0;2;2;1;1;0;2;3;0;2;0;0;3.9;5;3.75;2;4600;2; 5000;2; 6400;77;95;172<br>\n4490;Middleton, Khris;6609;Khris Middleton;mil;1;1;36;7;15;0;2;3;5;1;5;6;2;0;1;4;2;0;-6;0;0;25.2;27.5;25;3;5200;3; 3400;34; 6700;106;108;214<br>\n3783;Miles, C.J.;2778;C.J. Miles;ind;1;1;33;6;17;2;8;1;1;0;1;1;2;0;0;1;4;0;16;0;0;18.2;19.75;18;3;4400;3; 3800;23; 8500;103;91;194<br>\n3041;Miller, Andre;557;Andre Miller;was;1;0;10;0;1;0;1;0;0;0;1;1;1;0;0;0;1;0;-11;0;0;2.7;2.75;2.5;1;3900;1; 3000;12; 5000;95;107;202<br>\n3904;Millsap, Paul;3015;Paul Millsap;atl;1;1;32;4;13;0;2;5;9;5;5;10;5;1;0;4;3;0;-14;1;0;30.5;34.5;31.75;4;8600;4; 8300;45;14300;102;109;211<br>\n4682;Mirotic, Nikola;6459;Nikola Mirotic;chi;1;0;15;1;2;1;2;2;2;0;7;7;1;1;0;2;2;0;9;0;0;14.9;16.75;17;4;4500;4; 3000;34; 5000;104;80;184<br>\n4364;Moore, E\'Twaun;6460;E\'Twaun Moore;chi;1;0;3;0;1;0;1;0;0;0;0;0;0;0;0;0;0;0;-5;0;0;0;0;-0.25;1;3900;2; 3100;12; 5000;104;80;184<br>\n4407;Morris, Marcus;6462;Marcus Morris;pho;1;1;29;8;14;5;9;0;0;1;0;1;1;1;0;1;2;0;36;0;0;24.7;27.75;28.75;4;4000;4; 3600;4; 5750;119;99;218<br>\n4453;Morris, Markieff;6461;Markieff Morris;pho;1;1;26;5;10;1;4;1;1;1;2;3;2;1;0;0;3;0;31;0;0;20.6;21.25;20.5;4;6100;4; 6500;45;11400;119;99;218<br>\n4459;Motiejunas, Donatas;6464;Donatas Motiejunas;hou;1;0;9;1;2;0;1;1;2;1;2;3;0;1;0;0;1;0;-1;0;0;8.6;8.75;8.25;4;3800;3; 4000;34; 6500;104;93;197<br>\n4299;Mozgov, Timofey;4298;Timofey Mozgov;den;1;1;25;5;11;0;2;3;5;4;7;11;0;0;2;2;3;0;9;1;0;28.2;31.25;29.75;5;3700;5; 5400;5; 9050;89;79;168<br>\n4594;Muhammad, Shabazz;2993875;Shabazz Muhammad;min;1;0;23;5;10;1;2;2;4;3;4;7;1;1;0;1;1;0;4;0;0;23.9;25.25;24;3;3500;3; 3000;3; 5000;101;105;206<br>\n4694;Napier, Shabazz;2530780;Shabazz Napier;mia;1;0;15;1;2;0;1;0;0;1;2;3;2;1;0;1;0;0;9;0;0;9.6;10.25;10;1;3900;1; 3000;1; 5000;107;95;202<br>\n4300;Neal, Gary;4300;Gary Neal;cha;1;0;24;2;11;0;3;2;2;0;4;4;2;1;0;0;0;0;3;0;0;15.8;16;13.75;2;3500;2; 3000;;;108;106;214<br>\n4013;Noah, Joakim;3224;Joakim Noah;chi;1;1;20;1;4;0;0;1;2;2;4;6;2;0;3;2;2;0;3;0;0;17.2;18.5;17.5;5;8800;5; 7400;45;13100;104;80;184<br>\n4652;Noel, Nerlens;2991280;Nerlens Noel;phi;1;1;35;2;11;0;0;2;6;4;6;10;0;0;3;2;4;0;2;0;0;22;23.5;20.25;4;6100;4; 6700;45;12600;91;103;194<br>\n4681;Nurkic, Jusuf;3102530;Jusuf Nurkic;den;1;0;13;2;4;0;0;1;2;1;6;7;0;0;0;1;3;0;1;0;0;12.4;13.25;12.5;5;3500;5; 3000;5; 5000;89;79;168<br>\n4583;Olynyk, Kelly;2489663;Kelly Olynyk;bos;1;1;29;8;14;1;2;2;2;4;2;6;2;1;0;1;4;0;5;0;0;30.2;31.5;30.5;5;4800;5; 5500;5; 9850;121;105;226<br>\n3553;Pachulia, Zaza;2016;Zaza Pachulia;mil;1;0;14;2;5;0;0;0;0;0;1;1;0;2;1;3;1;0;-8;0;0;8.2;9.75;9;5;4500;5; 3000;5; 5250;106;108;214<br>\n4710;Papanikolaou, Kostas;4195;Kostas Papanikolaou;hou;1;0;22;4;7;4;6;0;0;0;2;2;4;1;1;0;0;0;4;0;0;24.4;26.5;27.75;3;3500;3; 3000;34; 5650;104;93;197<br>\n4728;Parker, Jabari;3056600;Jabari Parker;mil;1;1;37;3;9;0;0;2;2;0;4;4;1;1;0;0;1;0;-13;0;0;16.3;16.5;15;3;6500;3; 6600;3;11800;106;108;214<br>\n4302;Patterson, Patrick;4264;Patrick Patterson;tor;1;0;24;4;9;2;7;0;0;0;5;5;2;1;0;0;1;0;11;0;0;21;22.25;22;4;4400;4; 4000;45; 7350;109;102;211<br>\n4116;Pekovic, Nikola;3453;Nikola Pekovic;min;1;1;29;2;9;0;0;1;2;4;4;8;1;0;1;3;2;0;-17;0;0;15.1;17;15;5;7000;5; 6100;5;11100;101;105;206<br>\n3556;Perkins, Kendrick;2018;Kendrick Perkins;okc;1;0;21;2;3;0;0;0;0;5;3;8;0;1;1;0;2;0;-10;0;0;17.6;18;17.75;5;3700;5; 3000;5; 5000;89;106;195<br>\n2428;Pierce, Paul;662;Paul Pierce;was;1;1;33;6;10;1;3;4;5;0;6;6;5;2;0;1;3;0;-2;0;0;34.7;36;35.25;3;5500;3; 6300;34;10250;95;107;202<br>\n4607;Plumlee, Mason;2488653;Mason Plumlee;bkn;1;1;11;2;2;0;0;0;0;1;3;4;0;0;2;2;4;0;-6;0;0;10.8;12;12;5;4700;5; 5400;45; 9100;105;121;226<br>\n4542;Plumlee, Miles;6616;Miles Plumlee;pho;1;1;25;5;7;0;0;0;0;2;4;6;0;1;1;0;5;0;2;0;0;21.2;21.5;21;5;4700;5; 5500;45; 9200;119;99;218<br>\n4305;Pondexter, Quincy;4253;Quincy Pondexter;mem;1;0;11;1;2;1;2;1;2;0;0;0;1;0;0;0;1;0;-7;0;0;5.5;6;6;3;3500;2; 3000;23; 5000;105;101;206<br>\n4653;Porter, Otto;2594922;Otto Porter Jr.;was;1;0;24;4;7;1;3;4;6;1;3;4;0;1;0;0;1;0;-11;0;0;19.8;20.5;19.75;3;5100;3; 3000;3; 5000;95;107;202<br>\n3789;Price, Ronnie;2807;Ronnie Price;lal;1;0;30;2;7;1;3;1;2;0;3;3;5;2;0;0;2;0;2;0;0;21.1;21.75;20.75;1;3500;1; 3000;12; 5000;99;119;218<br>\n4546;Prigioni, Pablo;4182;Pablo Prigioni;nyk;1;0;17;1;4;0;3;2;3;0;2;2;3;3;0;0;1;0;-12;0;0;16.9;17;16;1;3900;1; 3000;12; 5000;80;104;184<br>\n3790;Randolph, Shavlik;2810;Shavlik Randolph;pho;1;0;13;1;3;0;1;1;3;2;3;5;0;0;0;0;2;0;-2;0;0;9;9.25;8.25;4;3500;4; 3000;4; 5000;119;99;218<br>\n3314;Randolph, Zach;1017;Zach Randolph;mem;1;1;35;12;16;0;0;1;1;6;7;13;1;1;1;5;3;0;11;1;0;41.1;45.75;45.25;4;7700;4; 7300;45;12800;105;101;206<br>\n4559;Roberson, Andre;2530596;Andre Roberson;okc;1;1;35;3;4;0;0;0;0;1;6;7;2;1;0;2;5;0;-14;0;0;17.4;18.75;18.5;2;3500;3; 4100;34; 5000;89;106;195<br>\n4485;Roberts, Brian;6641;Brian Roberts;cha;1;0;14;2;4;0;1;0;0;0;0;0;3;1;0;0;1;0;-10;0;0;10.5;10.5;10;1;4200;1; 3000;;;108;106;214<br>\n3793;Robinson, Nate;2782;Nate Robinson;den;1;0;6;1;4;0;1;1;1;0;0;0;1;0;0;0;0;0;-8;0;0;4.5;4.5;3.75;1;4200;1; 3000;12; 5000;89;79;168<br>\n4509;Robinson, Thomas;6618;Thomas Robinson;por;1;0;2;1;2;0;0;0;0;0;1;1;0;0;0;0;0;0;1;0;0;3.2;3.25;3;4;4400;4; 3300;4; 5000;106;89;195<br>\n3872;Rondo, Rajon;3026;Rajon Rondo;bos;1;1;30;6;9;1;3;0;4;0;7;7;12;1;1;3;1;0;13;1;0;40.4;44.25;43.5;1;8100;1; 8000;1;13750;121;105;226<br>\n4073;Rose, Derrick;3456;Derrick Rose;chi;1;1;21;3;7;0;3;7;8;0;3;3;5;2;0;3;2;0;4;0;0;25.1;26.75;25.5;1;8400;1; 7400;1;14300;104;80;184<br>\n4549;Ross, Terrence;6619;Terrence Ross;tor;1;1;28;5;11;3;5;0;0;0;3;3;3;1;1;0;2;0;-1;0;0;25.1;26.75;26.75;2;4800;3; 4700;23; 8250;109;102;211<br>\n4414;Rubio, Ricky;4011;Ricky Rubio;min;1;1;36;5;12;0;0;2;3;3;3;6;7;1;0;7;4;0;-5;0;0;24.7;28.5;26.5;1;6800;1; 7400;1;12250;101;105;206<br>\n4683;Rudez, Damjan;2309097;Damjan Rudez;ind;1;0;15;0;2;0;2;0;0;0;0;0;0;0;0;0;1;0;-4;0;0;0;0;-0.5;3;3500;4; 3000;4; 5000;103;91;194<br>\n4535;Sacre, Robert;6620;Robert Sacre;lal;1;0;12;2;4;0;0;2;2;0;1;1;1;0;0;1;0;0;5;0;0;7.7;8.25;7.75;5;3600;5; 3000;5; 5000;99;119;218<br>\n4676;Sampson, JaKarr;2608891;JaKarr Sampson;phi;1;0;8;0;4;0;2;0;0;0;1;1;0;0;0;1;2;0;-13;0;0;0.2;0.75;-0.25;4;3500;4; 3000;4; 5000;91;103;194<br>\n4313;Sanders, Larry;4265;Larry Sanders;mil;1;1;26;5;8;0;0;0;0;1;4;5;1;2;1;0;5;0;-7;0;0;23.5;23.75;23;5;6900;5; 5800;45; 9900;106;108;214<br>\n4595;Schroder, Dennis;3032979;Dennis Schroder;atl;1;0;4;0;0;0;0;1;2;0;1;1;0;0;0;0;3;0;-6;0;0;2.2;2.25;2;1;3500;1; 3000;1; 5000;102;109;211<br>\n3503;Scola, Luis;1781;Luis Scola;ind;1;1;25;5;9;0;0;0;2;3;3;6;2;2;0;4;4;0;-11;0;0;20.2;22.5;21;4;4000;4; 4500;45; 5650;103;91;194<br>\n4488;Scott, Mike;6622;Mike Scott;atl;1;0;21;8;11;4;6;0;0;0;4;4;1;0;0;1;5;0;7;0;0;25.3;28;29.25;4;3800;4; 3400;4; 5500;102;109;211<br>\n3931;Sefolosha, Thabo;3028;Thabo Sefolosha;atl;1;0;17;0;3;0;1;0;0;0;2;2;2;0;1;1;1;0;-5;0;0;6.4;7;6.25;2;3800;2; 3000;23; 6100;102;109;211<br>\n4314;Seraphin, Kevin;4289;Kevin Seraphin;was;1;0;8;0;2;0;0;0;0;0;0;0;1;0;0;0;2;0;-15;0;0;1.5;1.5;1;4;3500;4; 3000;45; 5000;95;107;202<br>\n4020;Sessions, Ramon;3231;Ramon Sessions;sac;1;0;10;1;3;0;0;1;1;0;0;0;1;0;0;4;2;0;-12;0;0;0.5;2.5;2;1;5000;1; 5000;12; 7250;77;95;172<br>\n4397;Shumpert, Iman;6468;Iman Shumpert;nyk;1;1;20;2;9;1;2;0;0;1;2;3;1;3;0;0;2;0;8;0;0;16.1;16.75;15.5;3;4400;2; 3900;23; 6700;80;104;184<br>\n4524;Shved, Alexey;3882;Alexey Shved;phi;1;0;24;5;11;3;6;5;6;1;2;3;5;0;0;0;4;0;-16;0;0;29.1;30.75;30.5;1;3500;1; 4500;12; 5400;91;103;194<br>\n4547;Sims, Henry;6647;Henry Sims;phi;1;1;23;4;9;0;0;2;2;1;3;4;0;0;0;1;4;0;-16;0;0;13.8;14.5;13.25;5;5600;5; 5700;5;10850;91;103;194<br>\n4460;Singler, Kyle;6469;Kyle Singler;det;1;1;30;3;7;2;4;0;0;0;2;2;1;0;0;2;4;0;-10;0;0;9.9;12;12;3;3800;3; 3000;23; 5100;79;89;168<br>\n4435;Sloan, Donald;4303;Donald Sloan;ind;1;1;34;6;13;1;4;3;4;2;8;10;6;1;0;4;3;0;-1;1;0;35;39.5;38.5;1;3500;1; 3000;12; 5000;103;91;194<br>\n4677;Smart, Marcus;2990992;Marcus Smart;bos;1;0;28;3;7;1;4;3;3;1;1;2;2;4;0;0;2;0;20;0;0;23.4;24;23.5;1;5600;1; 5600;1; 9100;121;105;226<br>\n3669;Smith, J.R.;2444;J.R. Smith;nyk;1;0;22;2;8;0;1;2;2;0;1;1;3;0;0;0;0;0;-22;0;0;11.7;11.75;10.25;2;6000;2; 5300;23;11300;80;104;184<br>\n4023;Smith, Jason;3232;Jason Smith;nyk;1;0;14;4;9;0;0;0;0;0;1;1;0;0;0;0;3;0;-16;0;0;9.2;9.25;8;4;4800;5; 3000;45; 6600;80;104;184<br>\n3670;Smith, Josh;2411;Josh Smith;det;1;1;36;9;22;0;3;7;11;1;4;5;3;1;2;2;5;0;-13;0;0;39.5;40.75;36.5;3;7800;4; 7600;34;13650;79;89;168<br>\n4571;Snell, Tony;2528353;Tony Snell;chi;1;0;17;1;4;0;1;1;1;0;1;1;0;1;0;1;1;0;7;0;0;5.2;5.75;5;2;3500;2; 3000;23; 5000;104;80;184<br>\n4122;Speights, Marreese;3460;Marreese Speights;gsw;1;0;18;8;13;0;0;0;0;2;3;5;2;0;0;3;2;0;-1;0;0;22;23.75;22.5;4;3600;4; 3000;45; 7600;95;77;172<br>\n4703;Stauskas, Nik;2991042;Nik Stauskas;sac;1;0;26;3;10;2;7;1;1;0;0;0;0;0;0;1;3;0;-19;0;0;8;9.5;8.75;2;4500;2; 3900;2; 5000;77;95;172<br>\n4316;Stephenson, Lance;4244;Lance Stephenson;cha;1;1;40;3;12;0;2;1;2;3;10;13;8;0;0;2;4;0;9;0;0;32.6;34.25;31.75;2;7200;2; 7100;;;108;106;214<br>\n3419;Stoudemire, Amare;1727;Amar\'e Stoudemire;nyk;1;1;24;5;9;0;0;2;2;3;5;8;0;1;1;1;3;0;-6;0;0;24.6;25.5;24.5;4;5500;4; 4800;45; 8550;80;104;184<br>\n4026;Stuckey, Rodney;3235;Rodney Stuckey;ind;1;0;16;5;9;2;2;4;6;0;3;3;5;1;0;1;2;0;15;0;0;28.1;29.75;29.25;2;5600;1; 5600;12;10450;103;91;194<br>\n4475;Sullinger, Jared;6624;Jared Sullinger;bos;1;1;28;5;9;1;3;2;3;0;4;4;2;0;2;1;2;0;11;0;0;23.8;25;24.25;4;6600;4; 6600;45;11150;121;105;226<br>\n4221;Teague, Jeff;4015;Jeff Teague;atl;1;1;32;8;12;1;1;3;4;0;3;3;8;3;0;6;2;0;0;0;0;35.6;39.25;38.5;1;6500;1; 7200;1;11650;102;109;211<br>\n4478;Teletovic, Mirza;4385;Mirza Teletovic;bkn;1;0;23;8;11;4;6;0;0;2;4;6;1;0;2;2;1;0;4;0;0;30.7;34;35.25;3;4800;3; 4800;34; 9050;105;121;226<br>\n3677;Telfair, Sebastian;2417;Sebastian Telfair;okc;1;0;15;1;9;0;5;2;2;0;1;1;2;0;0;0;2;0;-13;0;0;8.2;8.25;6.25;1;3500;1; 3000;1; 5000;89;106;195<br>\n4199;Temple, Garrett;4023;Garrett Temple;was;1;1;31;2;8;2;6;0;0;2;5;7;1;2;1;3;1;0;-2;0;0;18.9;21.75;21.25;1;3500;2; 3000;12; 5000;95;107;202<br>\n3054;Terry, Jason;841;Jason Terry;hou;1;0;21;3;5;2;3;0;0;0;0;0;0;0;0;2;1;0;-1;0;0;6;8;8.5;2;3800;2; 3700;12; 5000;104;93;197<br>\n4420;Thomas, Isaiah;6472;Isaiah Thomas;pho;1;0;20;9;11;5;7;0;2;0;1;1;3;0;0;2;1;0;-7;0;0;26.7;30.25;31.75;1;6500;1; 5800;1; 9800;119;99;218<br>\n4384;Thomas, Lance;6485;Lance Thomas;okc;1;0;31;7;10;0;0;0;0;1;2;3;2;0;0;0;2;0;-25;0;0;20.6;20.75;20;3;3500;4; 3000;34; 5000;89;106;195<br>\n4452;Thomas, Malcolm;6511;Malcolm Thomas;phi;1;0;16;1;2;0;0;2;2;2;3;5;0;0;1;2;3;0;-12;0;0;10;11.25;11;;;;;;;91;103;194<br>\n4534;Thompson, Hollis;6634;Hollis Thompson;phi;1;1;29;2;5;1;2;0;0;1;2;3;2;4;0;0;5;0;0;0;0;19.6;20.25;20;3;4500;3; 3800;34; 6200;91;103;194<br>\n4124;Thompson, Jason;3462;Jason Thompson;sac;1;1;21;1;3;0;0;0;0;2;5;7;0;2;1;4;3;0;-9;0;0;12.4;14.75;14.25;4;4300;4; 4200;45; 6250;77;95;172<br>\n4367;Thompson, Klay;6475;Klay Thompson;gsw;1;1;38;4;14;2;8;9;10;0;2;2;6;2;1;5;1;0;21;0;0;31.4;35;33.25;2;6400;2; 7100;23;11800;95;77;172<br>\n4227;Thornton, Marcus;4017;Marcus Thornton;bos;1;0;14;4;6;1;2;1;1;0;0;0;0;0;1;0;2;0;-1;0;0;12;12.5;12.5;2;4800;2; 3000;2; 5000;121;105;226<br>\n4049;Tolliver, Anthony;3276;Anthony Tolliver;pho;1;0;12;2;2;2;2;1;2;1;5;6;0;0;0;2;3;0;-14;0;0;12.2;14.5;15.25;4;3500;4; 3000;34; 5000;119;99;218<br>\n4318;Turner, Evan;4239;Evan Turner;bos;1;0;24;5;9;0;1;0;1;1;6;7;5;1;1;3;3;0;14;0;0;26.9;28.75;27.5;3;5300;3; 3600;23; 6200;121;105;226<br>\n3678;Udrih, Beno;2448;Beno Udrih;mem;1;0;14;1;3;0;1;0;0;0;1;1;1;0;0;1;2;0;-11;0;0;3.7;4.25;3.75;1;3500;1; 3000;1; 5000;105;101;206<br>\n4497;Valanciunas, Jonas;6477;Jonas Valanciunas;tor;1;1;21;4;5;0;0;9;10;3;5;8;0;0;1;1;3;0;3;0;0;27.6;28.5;28;5;6700;5; 6100;5;10250;109;102;211<br>\n4320;Vasquez, Greivis;4291;Greivis Vasquez;tor;1;0;17;5;11;2;6;0;0;0;2;2;3;0;0;0;4;0;13;0;0;18.9;20;19.5;1;4300;1; 3600;12; 7350;109;102;211<br>\n3571;Wade, Dwyane;1987;Dwyane Wade;mia;1;1;31;8;16;2;3;3;3;0;1;1;3;2;0;2;2;0;9;0;0;28.7;30.75;29.75;2;8000;2; 7400;12;14850;107;95;202<br>\n4440;Walker, Kemba;6479;Kemba Walker;cha;1;1;39;9;26;3;9;5;11;2;4;6;5;1;1;0;1;0;12;0;0;44.7;46.5;42.25;1;7400;1; 8000;;;108;106;214<br>\n4321;Wall, John;4237;John Wall;was;1;1;37;6;13;0;2;4;4;0;3;3;11;2;0;6;3;0;2;1;0;34.1;38.75;37.5;1;8600;1; 9200;1;15400;95;107;202<br>\n4714;Wear, Travis;2488674;Travis Wear;nyk;1;0;6;1;3;0;0;0;0;0;0;0;0;0;0;2;0;0;-6;0;0;0;1;0.5;4;3500;4; 3000;4; 5000;80;104;184<br>\n4079;Westbrook, Russell;3468;Russell Westbrook;okc;1;1;33;11;26;1;2;15;16;2;1;3;6;3;0;2;3;0;-4;0;0;54.6;56.25;52.75;1;10000;1;10400;1;18950;89;106;195<br>\n4704;Wiggins, Andrew;3059319;Andrew Wiggins;min;1;1;19;2;5;1;1;1;2;1;2;3;1;2;0;2;4;0;-4;0;0;13.1;14.75;14.25;3;6400;3; 5500;3; 9750;101;105;206<br>\n3814;Williams, Deron;2798;Deron Williams;bkn;1;1;39;6;16;0;3;7;7;0;3;3;8;2;1;4;1;0;-16;0;0;36.6;38.75;36.25;1;7700;1; 7300;1;13050;105;121;226<br>\n4416;Williams, Derrick;6480;Derrick Williams;sac;1;0;13;1;4;0;2;0;0;1;1;2;0;1;0;0;2;0;-16;0;0;6.4;6.5;5.75;4;4000;3; 3800;34; 5800;77;95;172<br>\n3816;Williams, Louis;2799;Louis Williams;tor;1;0;15;3;8;1;4;1;1;1;0;1;1;0;0;1;1;0;6;0;0;9.7;10.75;10;2;4500;1; 3000;12; 5000;109;102;211<br>\n3817;Williams, Marvin;2797;Marvin Williams;cha;1;1;33;8;12;3;6;0;0;2;2;4;3;1;0;2;0;0;3;0;0;28.3;31;31.5;4;3900;3; 4200;;;108;106;214<br>\n3574;Williams, Maurice;2178;Mo Williams;min;1;0;26;6;9;2;3;4;4;0;0;0;4;1;0;3;3;0;10;0;0;23;25.5;25.75;1;4400;1; 3300;12; 6150;101;105;206<br>\n3923;Williams, Shawne;3038;Shawne Williams;mia;1;1;32;1;9;0;6;1;2;3;3;6;3;2;0;0;5;0;6;0;0;18.7;19;16.75;3;3500;3; 3000;34; 5000;107;95;202<br>\n3683;Wright, Dorell;2423;Dorell Wright;por;1;0;5;0;1;0;1;0;0;0;1;1;0;0;1;0;1;0;4;0;0;3.2;3.25;3;3;4400;3; 3000;23; 5000;106;89;195<br>\n4469;Wroten, Tony;6630;Tony Wroten;phi;1;1;35;9;21;1;4;3;8;1;7;8;7;3;0;1;2;0;8;0;0;47.1;48.5;44.75;1;5500;1; 4500;1; 9000;91;103;194<br>\n4037;Young, Thaddeus;3244;Thaddeus Young;min;1;1;34;10;18;2;3;4;4;2;2;4;4;2;0;1;2;0;-6;0;0;39.8;41.5;40.5;4;7500;4; 6700;34;11600;101;105;206<br>\n4614;Zeller, Cody;2579258;Cody Zeller;cha;1;0;20;3;6;0;0;5;5;1;1;2;0;1;0;2;3;0;-1;0;0;13.4;14.5;13.75;4;3500;4; 4700;;;108;106;214<br>\n4516;Zeller, Tyler;6631;Tyler Zeller;bos;1;0;6;3;4;0;0;0;0;0;1;1;1;0;0;0;1;0;4;0;0;8.7;8.75;8.5;5;4700;5; 3000;45; 6250;121;105;226<br>\n<hr>\n'
p21
ssg1
(S'\x07\xde\n\x1c\x00\x00\x00\x00\x00\x00'
p22
tp23
Rp24
(dp25
g6
S'http://rotoguru1.com/cgi-bin/hoopstat-daterange.pl?gameday=20141028&tmptmax=999&date=20141028&ha=&opptmax=999&saldate=20141028&opptmin=0&startdate=20141028&g=0&min=&gmptmax=999&gmptmin=0&tmptmin=0&sd=0'
p26
sg8
S'\n<center><IMG SRC="http://rotoguru1.com/images/gfs2.gif" WIDTH=316 HEIGHT=66 alt="[RotoGuru logo]"><br>\n<IMG SRC="http://rotoguru1.com/images/gfssubtitle.gif" WIDTH=316 HEIGHT=29 alt="[RotoGuru subtitle]">\n</P>\n\n<Font size=+2>NBA Player Stat Summarizer</font></P><P>\n\n\n<script async src="//pagead2.googlesyndication.com/pagead/js/adsbygoogle.js"></script>\n<!-- DBD-728x90 -->\n<ins class="adsbygoogle"\n     style="display:inline-block;width:728px;height:90px"\n     data-ad-client="ca-pub-8583726409420479"\n     data-ad-slot="1101218059"></ins>\n<script>\n(adsbygoogle = window.adsbygoogle || []).push({});\n</script>\n</center><hr>\n<!---- end header ---->\nSummarizing stats from 28 OCT 2014 (20141028) through 28 OCT 2014 (20141028), DFS salary data as of 28 OCT 2014 (20141028)<br><table border=0><tr><td valign=top>Selection criteria: &nbsp; </td><td>&#8226; teams scheduled on 28 OCT 2014<br>&#8226; all games played (started and not started)<br>&#8226; both home and away games</td></tr></table><hr>\ngid;name;espn_id;espn_name;team;gp;gs;min;fg;fga;3p;3pa;ft;fta;orb;drb;rb;ast;stl;blk;to;pf;dq;+/-;dd;td;fanduel pts;draftkings pts;draftday pts;fanduel position;fanduel salary;draftkings position;draftkings salary;draftday position;draftday salary;team pts;oppt pts;total pts<br>\n4084;Ajinca, Alexis;3410;Alexis Ajinca;nor;1;0;2;1;1;0;0;0;0;0;0;0;0;0;0;1;0;0;-6;0;0;1;1.5;1.5;5;3700;4; 3000;45; 5000;101;84;185<br>\n4261;Aminu, Al-Farouq;4248;Al-Farouq Aminu;dal;1;0;5;0;2;0;2;0;0;1;1;2;0;0;0;1;1;0;0;0;0;1.4;2;1.5;3;4400;3; 3000;3; 5800;100;101;201<br>\n4085;Anderson, Ryan;3412;Ryan Anderson;nor;1;0;22;9;22;3;6;1;3;7;2;9;0;0;0;0;2;0;18;0;0;32.8;34.75;32.5;4;6500;4; 5800;45;10600;101;84;185<br>\n3621;Ariza, Trevor;2426;Trevor Ariza;hou;1;1;30;5;10;5;8;1;1;1;2;3;2;2;0;2;3;0;10;0;0;24.6;28.25;29.5;3;6100;3; 6200;23;11250;108;90;198<br>\n4263;Asik, Omer;3414;Omer Asik;nor;1;1;34;7;10;0;0;0;3;7;10;17;2;0;5;3;4;0;11;1;0;44.4;48.25;47.25;5;4900;5; 5800;45; 9850;101;84;185<br>\n4264;Babbitt, Luke;4250;Luke Babbitt;nor;1;0;2;0;0;0;0;0;0;0;0;0;0;0;0;0;0;0;-6;0;0;0;0;0;3;3500;3; 3000;3; 5000;101;84;185<br>\n4556;Baynes, Aron;2968439;Aron Baynes;sas;1;0;18;2;3;0;0;0;0;0;2;2;0;0;1;2;3;0;3;0;0;6.4;7.5;7.25;5;3500;5; 3000;5; 5000;101;100;201<br>\n3974;Belinelli, Marco;3190;Marco Belinelli;sas;1;1;31;5;8;3;6;2;2;0;2;2;3;1;0;2;1;0;13;0;0;21.9;24.5;25.25;2;4200;2; 4200;23; 8150;101;100;201<br>\n4234;Beverley, Patrick;3964;Patrick Beverley;hou;1;1;31;2;6;2;3;3;6;1;4;5;5;0;0;2;3;0;17;0;0;20.5;22.75;22;1;4900;1; 5100;12; 9350;108;90;198<br>\n4691;Black, Tarik;2528393;Tarik Black;hou;1;0;24;1;2;0;0;0;0;0;2;2;0;0;0;0;4;0;4;0;0;4.4;4.5;4.25;4;3500;4; 3000;4; 5000;108;90;198<br>\n3520;Bonner, Matt;1996;Matt Bonner;sas;1;1;15;0;2;0;1;0;0;0;2;2;0;0;0;0;3;0;6;0;0;2.4;2.5;2;5;3500;4; 3000;4; 5000;101;100;201<br>\n3461;Boozer, Carlos;1703;Carlos Boozer;lal;1;1;28;7;13;0;0;3;3;3;4;7;2;1;0;0;1;0;-7;0;0;30.4;30.75;29.25;4;6600;4; 7000;45;11550;90;108;198<br>\n1881;Bryant, Kobe;110;Kobe Bryant;lal;1;1;29;6;17;0;1;7;8;0;3;3;2;1;0;1;5;0;-11;0;0;26.6;27.25;24.25;2;9000;2; 7800;12;13700;90;108;198<br>\n4569;Canaan, Isaiah;2490589;Isaiah Canaan;hou;1;0;7;0;1;0;1;2;2;0;1;1;0;0;0;1;0;0;-8;0;0;2.2;2.75;2.5;1;3600;1; 3000;1; 5000;108;90;198<br>\n3307;Chandler, Tyson;984;Tyson Chandler;dal;1;1;28;4;8;0;0;0;0;3;7;10;0;2;0;1;5;0;-8;0;0;23;24;23;5;5700;5; 5700;5;10500;100;101;201<br>\n4668;Clarkson, Jordan;2528426;Jordan Clarkson;lal;1;0;20;1;4;1;2;5;6;0;4;4;2;0;0;1;3;0;-4;0;0;14.8;16;15.5;2;3500;1; 3000;1; 5000;90;108;198<br>\n4472;Crowder, Jae;6581;Jae Crowder;dal;1;0;11;2;2;0;0;1;1;0;0;0;0;0;0;1;1;0;-8;0;0;4;4.5;4.5;3;3500;4; 3000;34; 5000;100;101;201<br>\n4658;Daniels, Troy;2489530;Troy Daniels;hou;1;0;9;0;5;0;5;2;2;0;0;0;0;0;0;0;2;0;-7;0;0;2;2;0.75;1;3500;1; 3000;1; 5300;108;90;198<br>\n4482;Davis, Anthony;6583;Anthony Davis;nor;1;1;36;10;22;0;0;6;9;9;8;17;2;3;9;0;1;0;19;1;0;73.4;75.75;72.5;4;10100;4; 9500;45;18100;101;84;185<br>\n4276;Davis, Ed;4259;Ed Davis;lal;1;0;22;5;7;0;0;1;2;2;4;6;0;1;2;0;6;1;-16;0;0;24.2;24.5;23.75;4;3700;4; 3900;45; 5050;90;108;198<br>\n4572;Dedmon, Dewayne;2580913;Dewayne Dedmon;orl;1;0;8;1;2;0;0;1;2;2;1;3;0;0;1;1;1;0;-1;0;0;7.6;8.25;7.75;5;3500;5; 3000;5; 5000;84;101;185<br>\n3527;Diaw, Boris;2167;Boris Diaw;sas;1;0;33;2;6;1;3;0;0;1;8;9;6;0;0;4;2;0;-5;0;0;20.8;23.75;23.25;4;4200;4; 4400;45; 7400;101;100;201<br>\n2223;Duncan, Tim;215;Tim Duncan;sas;1;1;30;5;10;0;0;4;5;5;8;13;2;1;2;5;0;0;-2;1;0;33.6;38.25;37.25;4;7900;4; 7600;45;13550;101;100;201<br>\n3745;Ellis, Monta;2751;Monta Ellis;dal;1;1;37;11;21;1;2;3;4;1;3;4;6;1;0;3;0;0;4;0;0;38.8;41;38.75;2;8100;2; 7800;12;12950;100;101;201<br>\n4207;Evans, Tyreke;3983;Tyreke Evans;nor;1;1;35;5;15;0;1;2;5;2;7;9;6;0;0;0;0;0;10;0;0;31.8;32.25;29;2;7400;2; 6600;23;11550;101;84;185<br>\n4468;Fournier, Evan;6588;Evan Fournier;orl;1;1;32;3;11;2;4;3;3;1;2;3;2;0;0;4;2;0;-13;0;0;13.6;16.75;15.75;2;4500;2; 3000;2; 6000;84;101;185<br>\n4417;Fredette, Jimmer;6434;Jimmer Fredette;nor;1;0;18;0;6;0;3;2;2;0;0;0;2;1;0;0;3;0;3;0;0;7;7;5.5;1;3500;1; 3000;12; 5000;101;84;185<br>\n3021;Ginobili, Manu;272;Manu Ginobili;sas;1;0;28;6;13;2;6;6;7;0;2;2;6;2;0;3;4;0;-6;0;0;32.4;35;34;2;5400;2; 4800;23; 8800;101;100;201<br>\n4705;Gordon, Aaron;3064290;Aaron Gordon;orl;1;0;28;5;8;1;2;0;0;2;1;3;0;1;1;3;3;0;-18;0;0;15.6;17.75;17.5;4;3500;4; 4900;4; 7300;84;101;185<br>\n3636;Gordon, Ben;2381;Ben Gordon;orl;1;0;23;1;8;0;2;3;4;0;4;4;1;0;0;0;3;0;-15;0;0;11.3;11.5;9.5;2;3500;2; 3000;2; 6150;84;101;185<br>\n4077;Gordon, Eric;3431;Eric Gordon;nor;1;1;32;3;8;1;2;1;3;0;4;4;0;2;2;3;1;0;17;0;0;17.8;20;18.75;2;5900;2; 5200;2; 9400;101;84;185<br>\n4193;Green, Daniel;3988;Danny Green;sas;1;1;34;5;9;3;6;0;0;2;2;4;1;1;0;3;4;0;-4;0;0;18.3;21.5;22;2;4400;2; 4500;23; 8450;101;100;201<br>\n3533;Green, Willie;2004;Willie Green;orl;1;0;4;0;1;0;0;0;0;1;1;2;0;0;0;0;0;0;-3;0;0;2.4;2.5;2.25;2;3500;2; 3000;2; 5000;84;101;185<br>\n4224;Harden, James;3992;James Harden;hou;1;1;31;7;17;3;6;15;16;0;1;1;6;1;0;0;1;0;12;0;0;44.2;45.75;44.5;2;9900;2;10200;23;18300;108;90;198<br>\n3637;Harris, Devin;2382;Devin Harris;dal;1;0;29;6;12;2;5;3;4;0;0;0;5;2;0;1;1;0;-2;0;0;27.5;29;28.25;1;4300;1; 4200;12; 7450;100;101;201<br>\n4412;Harris, Tobias;6440;Tobias Harris;orl;1;1;37;9;18;1;2;6;6;2;6;8;0;1;0;4;2;0;-4;0;0;32.6;35.5;33.75;3;6400;3; 5800;34;10450;84;101;185<br>\n4287;Henry, Xavier;4241;Xavier Henry;lal;1;0;18;0;4;0;0;3;4;1;0;1;0;1;0;0;1;0;-6;0;0;6.2;6.25;5;2;3500;2; 3000;23; 5950;90;108;198<br>\n4179;Hill, Jordan;3994;Jordan Hill;lal;1;1;23;2;7;0;0;3;4;4;6;10;1;0;1;2;3;0;-6;0;0;20.5;22;20.5;5;5100;4; 5900;45;10400;90;108;198<br>\n4212;Holiday, Jrue;3995;Jrue Holiday;nor;1;1;27;4;11;0;3;0;0;0;2;2;4;3;1;2;2;0;9;0;0;22.4;23.5;21.75;1;7400;1; 7800;1;12750;101;84;185<br>\n3639;Howard, Dwight;2384;Dwight Howard;hou;1;1;21;3;5;0;0;7;16;3;8;11;1;0;1;1;5;0;20;1;0;28.7;31.25;29;5;9500;5; 8800;45;15650;108;90;198<br>\n3311;Jefferson, Richard;1006;Richard Jefferson;dal;1;0;13;1;3;1;2;3;4;1;1;2;1;0;0;1;2;0;1;0;0;8.9;10;9.75;3;3500;3; 3000;3; 5000;100;101;201<br>\n4292;Johnson, Wesley;4247;Wesley Johnson;lal;1;1;23;3;7;1;3;0;0;0;2;2;0;0;0;0;5;0;-2;0;0;9.4;10;9.5;3;4600;3; 4000;23; 7900;90;108;198<br>\n4511;Jones, Terrence;6597;Terrence Jones;hou;1;1;31;8;16;0;1;0;1;6;7;13;3;2;2;2;4;0;14;1;0;42.1;45.25;43.5;4;5700;3; 6300;34;10900;108;90;198<br>\n4405;Joseph, Cory;6446;Cory Joseph;sas;1;0;17;3;4;1;2;0;0;0;1;1;2;0;0;0;1;0;6;0;0;11.2;11.75;12;1;3500;1; 3000;1; 5800;101;100;201<br>\n4297;Lin, Jeremy;4299;Jeremy Lin;lal;1;1;29;1;5;0;1;5;6;1;1;2;6;0;0;4;3;0;-17;0;0;14.4;16.5;15.25;1;5500;1; 6400;12;10800;90;108;198<br>\n4689;Marble, Devyn;2527968;Devyn Marble;orl;1;0;3;2;2;0;0;0;2;0;1;1;0;0;0;0;1;0;4;0;0;5.2;5.25;4.75;;;;;;;84;101;185<br>\n4459;Motiejunas, Donatas;6464;Donatas Motiejunas;hou;1;0;16;0;0;0;0;4;6;2;3;5;0;0;0;2;3;0;-10;0;0;8;9.25;8.75;4;3800;3; 4000;34; 6500;108;90;198<br>\n3656;Nelson, Jameer;2439;Jameer Nelson;dal;1;1;30;3;7;3;5;0;0;0;0;0;3;1;1;0;1;0;3;0;0;17.5;19;19.5;1;6000;1; 4600;1; 8400;100;101;201<br>\n2374;Nowitzki, Dirk;609;Dirk Nowitzki;dal;1;1;32;7;11;0;1;4;4;2;4;6;2;1;0;1;4;0;-2;0;0;29.2;30;29;4;7900;4; 7400;45;13200;100;101;201<br>\n4529;O\'Quinn, Kyle;6615;Kyle O\'Quinn;orl;1;1;21;2;8;0;1;0;0;0;2;2;5;1;3;1;4;0;-15;0;0;20.9;21.5;20;5;4600;5; 3700;45; 6400;84;101;185<br>\n4710;Papanikolaou, Kostas;4195;Kostas Papanikolaou;hou;1;0;20;2;6;0;2;0;0;1;5;6;4;2;0;2;5;0;11;0;0;19.2;20.5;19.5;3;3500;3; 3000;34; 5650;108;90;198<br>\n3313;Parker, Tony;1015;Tony Parker;sas;1;1;35;9;15;4;4;1;2;1;2;3;3;0;0;1;2;0;-6;0;0;30.1;32.75;33;1;7300;1; 6400;1;11950;101;100;201<br>\n4461;Parsons, Chandler;6466;Chandler Parsons;dal;1;1;34;2;10;1;4;0;0;0;4;4;0;2;1;1;2;0;0;0;0;14.8;16;14.5;3;6800;3; 7300;34;12400;100;101;201<br>\n4699;Payton, Elfrid;2583639;Elfrid Payton;orl;1;1;31;2;8;0;0;0;0;3;2;5;7;1;0;2;5;0;1;0;0;20.5;21.75;20.25;1;5600;1; 5200;1; 9050;84;101;185<br>\n3789;Price, Ronnie;2807;Ronnie Price;lal;1;0;27;1;7;1;3;4;4;0;1;1;3;2;0;2;3;0;-11;0;0;14.7;16.25;15.25;1;3500;1; 3000;12; 5000;90;108;198<br>\n4680;Randle, Julius;3064514;Julius Randle;lal;1;0;14;1;3;0;0;0;2;0;0;0;0;0;0;1;1;0;-18;0;0;1;1.5;0.5;4;5500;4; 4800;4; 6650;90;108;198<br>\n3560;Ridnour, Luke;1985;Luke Ridnour;orl;1;0;17;0;3;0;0;2;2;0;2;2;1;0;0;2;2;0;-18;0;0;3.9;5;4.25;1;4700;1; 3000;12; 5000;84;101;185<br>\n4483;Rivers, Austin;6617;Austin Rivers;nor;1;0;20;2;5;0;2;3;6;0;1;1;3;1;0;0;1;0;6;0;0;14.7;14.75;13.25;2;3900;1; 3000;12; 5000;101;84;185<br>\n4535;Sacre, Robert;6620;Robert Sacre;lal;1;0;7;1;5;0;0;0;0;0;0;0;0;1;0;0;1;0;8;0;0;4;4;3;5;3600;5; 3000;5; 5000;90;108;198<br>\n3418;Salmons, John;1726;John Salmons;nor;1;0;10;0;0;0;0;0;0;1;1;2;1;0;0;0;3;0;10;0;0;3.9;4;4;3;3500;3; 3000;23; 5600;101;84;185<br>\n4408;Smith, Greg;6530;Greg Smith;dal;1;0;2;0;0;0;0;0;0;0;0;0;0;0;0;0;1;0;1;0;0;0;0;0;4;3500;5; 3000;45; 5000;100;101;201<br>\n3054;Terry, Jason;841;Jason Terry;hou;1;0;21;3;5;2;3;0;0;0;0;0;1;0;0;1;0;0;27;0;0;8.5;10;10.5;2;3800;2; 3700;12; 5000;108;90;198<br>\n4373;Vucevic, Nikola;6478;Nikola Vucevic;orl;1;1;35;7;15;0;0;1;2;5;18;23;1;1;4;1;2;0;-3;1;0;53.1;56.25;54.5;5;8100;5; 7600;45;13750;84;101;185<br>\n4565;Withey, Jeff;2333797;Jeff Withey;nor;1;0;2;0;1;0;0;0;0;0;1;1;0;0;0;0;0;0;-6;0;0;1.2;1.25;1;5;3500;5; 3000;5; 5000;101;84;185<br>\n4034;Wright, Brandan;3242;Brandan Wright;dal;1;0;18;2;2;0;0;2;2;1;4;5;0;0;1;0;2;0;6;0;0;14;14.25;14.25;5;3800;4; 3700;45; 6900;100;101;201<br>\n<hr>\n'
p27
ss.